
vtbl-loop:     file format elf64-x86-64

Contents of section .interp:
 0318 2f6c6962 36342f6c 642d6c69 6e75782d  /lib64/ld-linux-
 0328 7838362d 36342e73 6f2e3200           x86-64.so.2.    
Contents of section .note.gnu.property:
 0338 04000000 10000000 05000000 474e5500  ............GNU.
 0348 020000c0 04000000 03000000 00000000  ................
Contents of section .note.gnu.build-id:
 0358 04000000 14000000 03000000 474e5500  ............GNU.
 0368 10b6dda2 d4862a04 4412ce4a 408dd990  ......*.D..J@...
 0378 9f4c8b54                             .L.T            
Contents of section .note.ABI-tag:
 037c 04000000 10000000 01000000 474e5500  ............GNU.
 038c 00000000 03000000 02000000 00000000  ................
Contents of section .gnu.hash:
 03a0 03000000 12000000 01000000 06000000  ................
 03b0 0000b100 01000400 12000000 00000000  ................
 03c0 13000000 d165ce6d 72854c1b 15980c43  .....e.mr.L....C
Contents of section .dynsym:
 03d0 00000000 00000000 00000000 00000000  ................
 03e0 00000000 00000000 5e010000 12000000  ........^.......
 03f0 00000000 00000000 00000000 00000000  ................
 0400 b6000000 12000000 00000000 00000000  ................
 0410 00000000 00000000 8b010000 12000000  ................
 0420 00000000 00000000 00000000 00000000  ................
 0430 90000000 11000000 00000000 00000000  ................
 0440 00000000 00000000 cb010000 12000000  ................
 0450 00000000 00000000 00000000 00000000  ................
 0460 99010000 12000000 00000000 00000000  ................
 0470 00000000 00000000 55000000 12000000  ........U.......
 0480 00000000 00000000 00000000 00000000  ................
 0490 10010000 12000000 00000000 00000000  ................
 04a0 00000000 00000000 6a010000 12000000  ........j.......
 04b0 00000000 00000000 00000000 00000000  ................
 04c0 f8000000 12000000 00000000 00000000  ................
 04d0 00000000 00000000 cf000000 11000000  ................
 04e0 00000000 00000000 00000000 00000000  ................
 04f0 9f010000 12000000 00000000 00000000  ................
 0500 00000000 00000000 1f000000 20000000  ............ ...
 0510 00000000 00000000 00000000 00000000  ................
 0520 e7010000 12000000 00000000 00000000  ................
 0530 00000000 00000000 10000000 20000000  ............ ...
 0540 00000000 00000000 00000000 00000000  ................
 0550 3b000000 20000000 00000000 00000000  ;... ...........
 0560 00000000 00000000 78000000 12000000  ........x.......
 0570 00000000 00000000 00000000 00000000  ................
 0580 d8010000 22000000 00000000 00000000  ...."...........
 0590 00000000 00000000 5d000000 22001000  ........]..."...
 05a0 60150000 00000000 07000000 00000000  `...............
 05b0 b7010000 11001b00 40400000 00000000  ........@@......
 05c0 10010000 00000000                    ........        
Contents of section .dynstr:
 05c8 006c6962 73746463 2b2b2e73 6f2e3600  .libstdc++.so.6.
 05d8 5f5f676d 6f6e5f73 74617274 5f5f005f  __gmon_start__._
 05e8 49544d5f 64657265 67697374 6572544d  ITM_deregisterTM
 05f8 436c6f6e 65546162 6c65005f 49544d5f  CloneTable._ITM_
 0608 72656769 73746572 544d436c 6f6e6554  registerTMCloneT
 0618 61626c65 005f5a64 6c50766d 005f5a4e  able._ZdlPvm._ZN
 0628 4b537435 63747970 65496345 38646f5f  KSt5ctypeIcE8do_
 0638 77696465 6e456300 5f5a4e53 7438696f  widenEc._ZNSt8io
 0648 735f6261 73653449 6e697444 31457600  s_base4InitD1Ev.
 0658 5f5a5456 4e31305f 5f637878 61626976  _ZTVN10__cxxabiv
 0668 3131375f 5f636c61 73735f74 7970655f  117__class_type_
 0678 696e666f 45005f5a 4e536f39 5f4d5f69  infoE._ZNSo9_M_i
 0688 6e736572 74497845 4552536f 545f005f  nsertIxEERSoT_._
 0698 5a54564e 31305f5f 63787861 62697631  ZTVN10__cxxabiv1
 06a8 32305f5f 73695f63 6c617373 5f747970  20__si_class_typ
 06b8 655f696e 666f4500 5f5a5374 31365f5f  e_infoE._ZSt16__
 06c8 7468726f 775f6261 645f6361 73747600  throw_bad_castv.
 06d8 5f5a5374 31365f5f 6f737472 65616d5f  _ZSt16__ostream_
 06e8 696e7365 72744963 53743131 63686172  insertIcSt11char
 06f8 5f747261 69747349 63454552 53743133  _traitsIcEERSt13
 0708 62617369 635f6f73 74726561 6d49545f  basic_ostreamIT_
 0718 54305f45 53365f50 4b53335f 6c005f5a  T0_ES6_PKS3_l._Z
 0728 4e536f33 70757445 63005f5a 4e4b5374  NSo3putEc._ZNKSt
 0738 35637479 70654963 4531335f 4d5f7769  5ctypeIcE13_M_wi
 0748 64656e5f 696e6974 4576005f 5a4e536f  den_initEv._ZNSo
 0758 35666c75 73684576 005f5a6e 776d005f  5flushEv._Znwm._
 0768 5a4e5374 38696f73 5f626173 6534496e  ZNSt8ios_base4In
 0778 69744331 4576005f 5a537434 636f7574  itC1Ev._ZSt4cout
 0788 006c6962 632e736f 2e36005f 5f637861  .libc.so.6.__cxa
 0798 5f617465 78697400 5f5f6378 615f6669  _atexit.__cxa_fi
 07a8 6e616c69 7a65005f 5f6c6962 635f7374  nalize.__libc_st
 07b8 6172745f 6d61696e 00474c49 42435f32  art_main.GLIBC_2
 07c8 2e322e35 00474c49 42435858 5f332e34  .2.5.GLIBCXX_3.4
 07d8 2e313100 43585841 42495f31 2e332e39  .11.CXXABI_1.3.9
 07e8 00435858 4142495f 312e3300 474c4942  .CXXABI_1.3.GLIB
 07f8 4358585f 332e342e 3900474c 49424358  CXX_3.4.9.GLIBCX
 0808 585f332e 3400                        X_3.4.          
Contents of section .gnu.version:
 080e 00000200 03000200 05000400 02000600  ................
 081e 03000700 02000500 02000000 04000000  ................
 082e 00000200 04000100 0200               ..........      
Contents of section .gnu.version_r:
 0838 01000100 c1010000 10000000 20000000  ............ ...
 0848 751a6909 00000400 f9010000 00000000  u.i.............
 0858 01000500 01000000 10000000 00000000  ................
 0868 61f89702 00000700 05020000 10000000  a...............
 0878 79d1af0b 00000600 14020000 10000000  y...............
 0888 d3af6b05 00000500 21020000 10000000  ..k.....!.......
 0898 897f2902 00000300 2c020000 10000000  ..).....,.......
 08a8 74299208 00000200 3a020000 00000000  t)......:.......
Contents of section .rela.dyn:
 08b8 803c0000 00000000 08000000 00000000  .<..............
 08c8 50150000 00000000 883c0000 00000000  P........<......
 08d8 08000000 00000000 30140000 00000000  ........0.......
 08e8 903c0000 00000000 08000000 00000000  .<..............
 08f8 10150000 00000000 a03c0000 00000000  .........<......
 0908 08000000 00000000 283d0000 00000000  ........(=......
 0918 a83c0000 00000000 08000000 00000000  .<..............
 0928 70150000 00000000 b03c0000 00000000  p........<......
 0938 08000000 00000000 80150000 00000000  ................
 0948 b83c0000 00000000 08000000 00000000  .<..............
 0958 90150000 00000000 c03c0000 00000000  .........<......
 0968 08000000 00000000 80160000 00000000  ................
 0978 d03c0000 00000000 08000000 00000000  .<..............
 0988 383d0000 00000000 d83c0000 00000000  8=.......<......
 0998 08000000 00000000 b0150000 00000000  ................
 09a8 e03c0000 00000000 08000000 00000000  .<..............
 09b8 80150000 00000000 e83c0000 00000000  .........<......
 09c8 08000000 00000000 90150000 00000000  ................
 09d8 f03c0000 00000000 08000000 00000000  .<..............
 09e8 30170000 00000000 003d0000 00000000  0........=......
 09f8 08000000 00000000 503d0000 00000000  ........P=......
 0a08 083d0000 00000000 08000000 00000000  .=..............
 0a18 b0150000 00000000 103d0000 00000000  .........=......
 0a28 08000000 00000000 c0150000 00000000  ................
 0a38 183d0000 00000000 08000000 00000000  .=..............
 0a48 90150000 00000000 203d0000 00000000  ........ =......
 0a58 08000000 00000000 d0150000 00000000  ................
 0a68 303d0000 00000000 08000000 00000000  0=..............
 0a78 1e200000 00000000 403d0000 00000000  . ......@=......
 0a88 08000000 00000000 28200000 00000000  ........( ......
 0a98 483d0000 00000000 08000000 00000000  H=..............
 0aa8 283d0000 00000000 583d0000 00000000  (=......X=......
 0ab8 08000000 00000000 38200000 00000000  ........8 ......
 0ac8 603d0000 00000000 08000000 00000000  `=..............
 0ad8 383d0000 00000000 08400000 00000000  8=.......@......
 0ae8 08000000 00000000 08400000 00000000  .........@......
 0af8 283d0000 00000000 01000000 04000000  (=..............
 0b08 10000000 00000000 383d0000 00000000  ........8=......
 0b18 01000000 0b000000 10000000 00000000  ................
 0b28 503d0000 00000000 01000000 0b000000  P=..............
 0b38 10000000 00000000 d03f0000 00000000  .........?......
 0b48 06000000 12000000 00000000 00000000  ................
 0b58 d83f0000 00000000 06000000 0d000000  .?..............
 0b68 00000000 00000000 e03f0000 00000000  .........?......
 0b78 06000000 0e000000 00000000 00000000  ................
 0b88 e83f0000 00000000 06000000 0f000000  .?..............
 0b98 00000000 00000000 f03f0000 00000000  .........?......
 0ba8 06000000 10000000 00000000 00000000  ................
 0bb8 f83f0000 00000000 06000000 11000000  .?..............
 0bc8 00000000 00000000 40400000 00000000  ........@@......
 0bd8 05000000 14000000 00000000 00000000  ................
Contents of section .rela.plt:
 0be8 803f0000 00000000 07000000 01000000  .?..............
 0bf8 00000000 00000000 883f0000 00000000  .........?......
 0c08 07000000 02000000 00000000 00000000  ................
 0c18 903f0000 00000000 07000000 03000000  .?..............
 0c28 00000000 00000000 983f0000 00000000  .........?......
 0c38 07000000 05000000 00000000 00000000  ................
 0c48 a03f0000 00000000 07000000 06000000  .?..............
 0c58 00000000 00000000 a83f0000 00000000  .........?......
 0c68 07000000 07000000 00000000 00000000  ................
 0c78 b03f0000 00000000 07000000 08000000  .?..............
 0c88 00000000 00000000 b83f0000 00000000  .........?......
 0c98 07000000 09000000 00000000 00000000  ................
 0ca8 c03f0000 00000000 07000000 0a000000  .?..............
 0cb8 00000000 00000000 c83f0000 00000000  .........?......
 0cc8 07000000 0c000000 00000000 00000000  ................
Contents of section .init:
 1000 f30f1efa 4883ec08 488b05d9 2f000048  ....H...H.../..H
 1010 85c07402 ffd04883 c408c3             ..t...H....     
Contents of section .plt:
 1020 ff354a2f 0000f2ff 254b2f00 000f1f00  .5J/....%K/.....
 1030 f30f1efa 68000000 00f2e9e1 ffffff90  ....h...........
 1040 f30f1efa 68010000 00f2e9d1 ffffff90  ....h...........
 1050 f30f1efa 68020000 00f2e9c1 ffffff90  ....h...........
 1060 f30f1efa 68030000 00f2e9b1 ffffff90  ....h...........
 1070 f30f1efa 68040000 00f2e9a1 ffffff90  ....h...........
 1080 f30f1efa 68050000 00f2e991 ffffff90  ....h...........
 1090 f30f1efa 68060000 00f2e981 ffffff90  ....h...........
 10a0 f30f1efa 68070000 00f2e971 ffffff90  ....h......q....
 10b0 f30f1efa 68080000 00f2e961 ffffff90  ....h......a....
 10c0 f30f1efa 68090000 00f2e951 ffffff90  ....h......Q....
Contents of section .plt.got:
 10d0 f30f1efa f2ff25f5 2e00000f 1f440000  ......%......D..
Contents of section .plt.sec:
 10e0 f30f1efa f2ff2595 2e00000f 1f440000  ......%......D..
 10f0 f30f1efa f2ff258d 2e00000f 1f440000  ......%......D..
 1100 f30f1efa f2ff2585 2e00000f 1f440000  ......%......D..
 1110 f30f1efa f2ff257d 2e00000f 1f440000  ......%}.....D..
 1120 f30f1efa f2ff2575 2e00000f 1f440000  ......%u.....D..
 1130 f30f1efa f2ff256d 2e00000f 1f440000  ......%m.....D..
 1140 f30f1efa f2ff2565 2e00000f 1f440000  ......%e.....D..
 1150 f30f1efa f2ff255d 2e00000f 1f440000  ......%].....D..
 1160 f30f1efa f2ff2555 2e00000f 1f440000  ......%U.....D..
 1170 f30f1efa f2ff254d 2e00000f 1f440000  ......%M.....D..
Contents of section .text:
 1180 f30f1efa 4157bf10 00000041 56415545  ....AW.....AVAUE
 1190 31ed4154 555331db 4883ec08 e87fffff  1.ATUS1.H.......
 11a0 ffbf1800 000048c7 40080000 00004989  ......H.@.....I.
 11b0 c4488d05 f02a0000 49890424 e85fffff  .H...*..I..$._..
 11c0 ff660fef c0bf2000 00000f11 40084989  .f.... .....@.I.
 11d0 c7488d05 002b0000 498907e8 40ffffff  .H...+..I...@...
 11e0 660fefc0 48c74018 00000000 4989c60f  f...H.@.....I...
 11f0 11400848 8d050e2b 00004989 06e90901  .@.H...+..I.....
 1200 0000660f 1f440000 488b4a08 488d056d  ..f..D..H.J.H..m
 1210 03000049 015c2408 4839c10f 85220100  ...I.\$.H9..."..
 1220 00488b52 10488d05 64030000 488d0c1b  .H.R.H..d...H...
 1230 49014c24 084839c2 0f852401 00004489  I.L$.H9...$...D.
 1240 eac1fa0a 4863d249 01542408 498b1748  ....Hc.I.T$.I..H
 1250 8d055a03 0000488b 0a4839c1 0f855e01  ..Z...H..H9...^.
 1260 00004901 5f10488b 4a08488d 050f0300  ..I._.H.J.H.....
 1270 004839c1 0f853601 0000488d 0c1b4901  .H9...6...H...I.
 1280 4f08488b 5210488d 05030300 004839c2  O.H.R.H......H9.
 1290 0f850a01 00004489 eac1fa0a 4863d249  ......D.....Hc.I
 12a0 01570849 8b16488d 05030300 00488b0a  .W.I..H......H..
 12b0 4839c10f 85d70000 0049015e 10488b4a  H9.......I.^.H.J
 12c0 08488d05 f8020000 4839c10f 85af0000  .H......H9......
 12d0 0049015e 18488b52 10488d05 b0020000  .I.^.H.R.H......
 12e0 4839c20f 85870000 004489ea c1fa0a48  H9.......D.....H
 12f0 63d24901 56084883 c3014183 c5034881  c.I.V.H...A...H.
 1300 fb0065cd 1d0f84c4 00000049 8b142448  ..e........I..$H
 1310 8d055a02 000089dd 488b0a48 39c10f84  ..Z.....H..H9...
 1320 e4feffff 89de4c89 e7ffd149 8b142448  ......L....I..$H
 1330 8d054a02 0000488b 4a084839 c10f84de  ..J...H.J.H9....
 1340 feffff89 ee4c89e7 ffd1498b 1424488d  .....L....I..$H.
 1350 053b0200 00488b52 104839c2 0f84dcfe  .;...H.R.H9.....
 1360 ffff89ee 4c89e7ff d2e9defe ffff6690  ....L.........f.
 1370 89ee4c89 f7ffd2e9 7affffff 0f1f4000  ..L.....z.....@.
 1380 89ee4c89 f7ffd149 8b16e946 ffffff90  ..L....I...F....
 1390 89ee4c89 f7ffd149 8b16e91e ffffff90  ..L....I........
 13a0 89ee4c89 ffffd2e9 f7feffff 0f1f4000  ..L...........@.
 13b0 89ee4c89 ffffd149 8b17e9c3 feffff90  ..L....I........
 13c0 89ee4c89 ffffd149 8b17e997 feffff49  ..L....I.......I
 13d0 8b04244c 89e7ff50 18498b07 4c89ffff  ..$L...P.I..L...
 13e0 5018498b 064c89f7 ff50184c 89e7be10  P.I..L...P.L....
 13f0 000000e8 38fdffff 4c89ffbe 10000000  ....8...L.......
 1400 e82bfdff ff4c89f7 be100000 00e81efd  .+...L..........
 1410 ffff4883 c40831c0 5b5d415c 415d415e  ..H...1.[]A\A]A^
 1420 415fc366 662e0f1f 84000000 00006690  A_.ff.........f.
 1430 f30f1efa 4883ec08 488d3d12 2d0000e8  ....H...H.=.-...
 1440 2cfdffff 488b3dad 2b000048 83c40848  ,...H.=.+..H...H
 1450 8d15b22b 0000488d 35f42c00 00e9aefc  ...+..H.5.,.....
 1460 ffff662e 0f1f8400 00000000 0f1f4000  ..f...........@.
 1470 f30f1efa 31ed4989 d15e4889 e24883e4  ....1.I..^H..H..
 1480 f050544c 8d05c603 0000488d 0d4f0300  .PTL......H..O..
 1490 00488d3d e8fcffff ff15422b 0000f490  .H.=......B+....
 14a0 488d3d69 2b000048 8d05622b 00004839  H.=i+..H..b+..H9
 14b0 f8741548 8b051e2b 00004885 c07409ff  .t.H...+..H..t..
 14c0 e00f1f80 00000000 c30f1f80 00000000  ................
 14d0 488d3d39 2b000048 8d35322b 00004829  H.=9+..H.52+..H)
 14e0 fe4889f0 48c1ee3f 48c1f803 4801c648  .H..H..?H...H..H
 14f0 d1fe7414 488b05f5 2a000048 85c07408  ..t.H...*..H..t.
 1500 ffe0660f 1f440000 c30f1f80 00000000  ..f..D..........
 1510 f30f1efa 803d352c 00000075 2b554883  .....=5,...u+UH.
 1520 3daa2a00 00004889 e5740c48 8b3dd62a  =.*...H..t.H.=.*
 1530 0000e899 fbffffe8 64ffffff c6050d2c  ........d......,
 1540 0000015d c30f1f00 c30f1f80 00000000  ...]............
 1550 f30f1efa e977ffff ff0f1f80 00000000  .....w..........
 1560 f30f1efa 89f0c366 0f1f8400 00000000  .......f........
 1570 f30f1efa 4863f648 017708c3 0f1f4000  ....Hc.H.w....@.
 1580 f30f1efa 01f64863 f6480177 08c36690  ......Hc.H.w..f.
 1590 f30f1efa 8d0476c1 f80a4898 48014708  ......v...H.H.G.
 15a0 c3662e0f 1f840000 0000000f 1f440000  .f...........D..
 15b0 f30f1efa 4863f648 017710c3 0f1f4000  ....Hc.H.w....@.
 15c0 f30f1efa 4863f648 017718c3 0f1f4000  ....Hc.H.w....@.
 15d0 f30f1efa 4154ba09 00000048 8d35220a  ....AT.....H.5".
 15e0 00005553 4889fb48 8d3d522a 0000e84d  ..USH..H.=R*...M
 15f0 fbffff48 8b731048 8d3d422a 00004803  ...H.s.H.=B*..H.
 1600 73084803 7318e8e5 faffff48 89c5488b  s.H.s......H..H.
 1610 00488b40 e84c8ba4 05f00000 004d85e4  .H.@.L.......M..
 1620 74514180 7c243800 741e410f be742443  tQA.|$8.t.A..t$C
 1630 4889efe8 a8faffff 5b5d4889 c7415ce9  H.......[]H..A\.
 1640 bcfaffff 0f1f4000 4c89e7e8 00fbffff  ......@.L.......
 1650 498b0424 be0a0000 00488d15 00ffffff  I..$.....H......
 1660 488b4030 4839d074 c74c89e7 ffd00fbe  H.@0H9.t.L......
 1670 f0ebbde8 e8faffff 0f1f8400 00000000  ................
 1680 f30f1efa 4154ba05 00000048 8d357c09  ....AT.....H.5|.
 1690 00005548 89fd488d 3da32900 004883ec  ..UH..H.=.)..H..
 16a0 08e89afa ffff488b 7508488d 3d8f2900  ......H.u.H.=.).
 16b0 00e83afa ffff4889 c5488b00 488b40e8  ..:...H..H..H.@.
 16c0 4c8ba405 f0000000 4d85e474 5641807c  L.......M..tVA.|
 16d0 24380074 23410fbe 74244348 89efe8fd  $8.t#A..t$CH....
 16e0 f9ffff48 83c4085d 4889c741 5ce90efa  ...H...]H..A\...
 16f0 ffff660f 1f440000 4c89e7e8 50faffff  ..f..D..L...P...
 1700 498b0424 be0a0000 00488d15 50feffff  I..$.....H..P...
 1710 488b4030 4839d074 c24c89e7 ffd00fbe  H.@0H9.t.L......
 1720 f0ebb8e8 38faffff 0f1f8400 00000000  ....8...........
 1730 f30f1efa 4154ba09 00000048 8d35d208  ....AT.....H.5..
 1740 00005548 89fd488d 3df32800 004883ec  ..UH..H.=.(..H..
 1750 08e8eaf9 ffff488b 7510488d 3ddf2800  ......H.u.H.=.(.
 1760 00480375 08e886f9 ffff4889 c5488b00  .H.u......H..H..
 1770 488b40e8 4c8ba405 f0000000 4d85e474  H.@.L.......M..t
 1780 5a41807c 24380074 27410fbe 74244348  ZA.|$8.t'A..t$CH
 1790 89efe849 f9ffff48 83c4085d 4889c741  ...I...H...]H..A
 17a0 5ce95af9 ffff662e 0f1f8400 00000000  \.Z...f.........
 17b0 4c89e7e8 98f9ffff 498b0424 be0a0000  L.......I..$....
 17c0 00488d15 98fdffff 488b4030 4839d074  .H......H.@0H9.t
 17d0 be4c89e7 ffd00fbe f0ebb4e8 80f9ffff  .L..............
 17e0 f30f1efa 41574c8d 3d932400 00415649  ....AWL.=.$..AVI
 17f0 89d64155 4989f541 544189fc 55488d2d  ..AUI..ATA..UH.-
 1800 8c240000 534c29fd 4883ec08 e8eff7ff  .$..SL).H.......
 1810 ff48c1fd 03741f31 db0f1f80 00000000  .H...t.1........
 1820 4c89f24c 89ee4489 e741ff14 df4883c3  L..L..D..A...H..
 1830 014839dd 75ea4883 c4085b5d 415c415d  .H9.u.H...[]A\A]
 1840 415e415f c366662e 0f1f8400 00000000  A^A_.ff.........
 1850 f30f1efa c3                          .....           
Contents of section .fini:
 1858 f30f1efa 4883ec08 4883c408 c3        ....H...H....   
Contents of section .rodata:
 2000 01000200 44657269 76656432 20004261  ....Derived2 .Ba
 2010 73652000 44657269 76656431 20003442  se .Derived1 .4B
 2020 61736500 00000000 38446572 69766564  ase.....8Derived
 2030 31000000 00000000 38446572 69766564  1.......8Derived
 2040 3200                                 2.              
Contents of section .eh_frame_hdr:
 2044 011b033b 90000000 11000000 dcefffff  ...;............
 2054 c4000000 8cf0ffff ec000000 9cf0ffff  ................
 2064 04010000 3cf1ffff 1c020000 ecf3ffff  ....<...........
 2074 68020000 2cf4ffff ac000000 1cf5ffff  h...,...........
 2084 1c010000 2cf5ffff 30010000 3cf5ffff  ....,...0...<...
 2094 44010000 4cf5ffff 58010000 6cf5ffff  D...L...X...l...
 20a4 6c010000 7cf5ffff 80010000 8cf5ffff  l...|...........
 20b4 94010000 3cf6ffff c4010000 ecf6ffff  ....<...........
 20c4 f0010000 9cf7ffff 84020000 0cf8ffff  ................
 20d4 cc020000                             ....            
Contents of section .eh_frame:
 20d8 14000000 00000000 017a5200 01781001  .........zR..x..
 20e8 1b0c0708 90010000 14000000 1c000000  ................
 20f8 78f3ffff 2f000000 00440710 00000000  x.../....D......
 2108 24000000 34000000 10efffff b0000000  $...4...........
 2118 000e1046 0e184a0f 0b770880 003f1a3a  ...F..J..w...?.:
 2128 2a332422 00000000 14000000 5c000000  *3$"........\...
 2138 98efffff 10000000 00000000 00000000  ................
 2148 14000000 74000000 90efffff a0000000  ....t...........
 2158 00000000 00000000 10000000 8c000000  ................
 2168 f8f3ffff 07000000 00000000 10000000  ................
 2178 a0000000 f4f3ffff 0c000000 00000000  ................
 2188 10000000 b4000000 f0f3ffff 0e000000  ................
 2198 00000000 10000000 c8000000 ecf3ffff  ................
 21a8 11000000 00000000 10000000 dc000000  ................
 21b8 f8f3ffff 0c000000 00000000 10000000  ................
 21c8 f0000000 f4f3ffff 0c000000 00000000  ................
 21d8 2c000000 04010000 f0f3ffff a8000000  ,...............
 21e8 00460e10 8c024d0e 18860341 0e208304  .F....M....A. ..
 21f8 02550a0e 18410e10 450e0849 0b000000  .U...A..E..I....
 2208 28000000 34010000 70f4ffff a8000000  (...4...p.......
 2218 00460e10 8c024d0e 1886034e 0e200246  .F....M....N. .F
 2228 0a0e1841 0e10450e 084b0b00 28000000  ...A..E..K..(...
 2238 60010000 f4f4ffff b0000000 00460e10  `............F..
 2248 8c024d0e 1886034e 0e20024a 0a0e1841  ..M....N. .J...A
 2258 0e10450e 084f0b00 48000000 8c010000  ..E..O..H.......
 2268 18efffff a3020000 00460e10 8f02470e  .........F....G.
 2278 188e0342 0e208d04 450e288c 05410e30  ...B. ..E.(..A.0
 2288 8606410e 38830746 0e40037a 020e3843  ..A.8..F.@.z..8C
 2298 0e30410e 28420e20 420e1842 0e10420e  .0A.(B. B..B..B.
 22a8 08000000 18000000 d8010000 7cf1ffff  ............|...
 22b8 32000000 00480e10 570e0800 00000000  2....H..W.......
 22c8 44000000 f4010000 10f5ffff 65000000  D...........e...
 22d8 00460e10 8f02490e 188e0345 0e208d04  .F....I....E. ..
 22e8 450e288c 05440e30 8606480e 38830747  E.(..D.0..H.8..G
 22f8 0e406e0e 38410e30 410e2842 0e20420e  .@n.8A.0A.(B. B.
 2308 18420e10 420e0800 10000000 3c020000  .B..B.......<...
 2318 38f5ffff 05000000 00000000 00000000  8...............
Contents of section .init_array:
 3c80 50150000 00000000 30140000 00000000  P.......0.......
Contents of section .fini_array:
 3c90 10150000 00000000                    ........        
Contents of section .data.rel.ro:
 3c98 00000000 00000000 283d0000 00000000  ........(=......
 3ca8 70150000 00000000 80150000 00000000  p...............
 3cb8 90150000 00000000 80160000 00000000  ................
 3cc8 00000000 00000000 383d0000 00000000  ........8=......
 3cd8 b0150000 00000000 80150000 00000000  ................
 3ce8 90150000 00000000 30170000 00000000  ........0.......
 3cf8 00000000 00000000 503d0000 00000000  ........P=......
 3d08 b0150000 00000000 c0150000 00000000  ................
 3d18 90150000 00000000 d0150000 00000000  ................
 3d28 00000000 00000000 1e200000 00000000  ......... ......
 3d38 00000000 00000000 28200000 00000000  ........( ......
 3d48 283d0000 00000000 00000000 00000000  (=..............
 3d58 38200000 00000000 383d0000 00000000  8 ......8=......
Contents of section .dynamic:
 3d68 01000000 00000000 01000000 00000000  ................
 3d78 01000000 00000000 c1010000 00000000  ................
 3d88 0c000000 00000000 00100000 00000000  ................
 3d98 0d000000 00000000 58180000 00000000  ........X.......
 3da8 19000000 00000000 803c0000 00000000  .........<......
 3db8 1b000000 00000000 10000000 00000000  ................
 3dc8 1a000000 00000000 903c0000 00000000  .........<......
 3dd8 1c000000 00000000 08000000 00000000  ................
 3de8 f5feff6f 00000000 a0030000 00000000  ...o............
 3df8 05000000 00000000 c8050000 00000000  ................
 3e08 06000000 00000000 d0030000 00000000  ................
 3e18 0a000000 00000000 46020000 00000000  ........F.......
 3e28 0b000000 00000000 18000000 00000000  ................
 3e38 15000000 00000000 00000000 00000000  ................
 3e48 03000000 00000000 683f0000 00000000  ........h?......
 3e58 02000000 00000000 f0000000 00000000  ................
 3e68 14000000 00000000 07000000 00000000  ................
 3e78 17000000 00000000 e80b0000 00000000  ................
 3e88 07000000 00000000 b8080000 00000000  ................
 3e98 08000000 00000000 30030000 00000000  ........0.......
 3ea8 09000000 00000000 18000000 00000000  ................
 3eb8 1e000000 00000000 08000000 00000000  ................
 3ec8 fbffff6f 00000000 01000008 00000000  ...o............
 3ed8 feffff6f 00000000 38080000 00000000  ...o....8.......
 3ee8 ffffff6f 00000000 02000000 00000000  ...o............
 3ef8 f0ffff6f 00000000 0e080000 00000000  ...o............
 3f08 f9ffff6f 00000000 18000000 00000000  ...o............
 3f18 00000000 00000000 00000000 00000000  ................
 3f28 00000000 00000000 00000000 00000000  ................
 3f38 00000000 00000000 00000000 00000000  ................
 3f48 00000000 00000000 00000000 00000000  ................
 3f58 00000000 00000000 00000000 00000000  ................
Contents of section .got:
 3f68 683d0000 00000000 00000000 00000000  h=..............
 3f78 00000000 00000000 30100000 00000000  ........0.......
 3f88 40100000 00000000 50100000 00000000  @.......P.......
 3f98 60100000 00000000 70100000 00000000  `.......p.......
 3fa8 80100000 00000000 90100000 00000000  ................
 3fb8 a0100000 00000000 b0100000 00000000  ................
 3fc8 c0100000 00000000 00000000 00000000  ................
 3fd8 00000000 00000000 00000000 00000000  ................
 3fe8 00000000 00000000 00000000 00000000  ................
 3ff8 00000000 00000000                    ........        
Contents of section .data:
 4000 00000000 00000000 08400000 00000000  .........@......
Contents of section .comment:
 0000 4743433a 20285562 756e7475 20392e34  GCC: (Ubuntu 9.4
 0010 2e302d31 7562756e 7475317e 32302e30  .0-1ubuntu1~20.0
 0020 342e3229 20392e34 2e3000             4.2) 9.4.0.     

Disassembly of section .init:

0000000000001000 <_init>:
    1000:	f3 0f 1e fa          	endbr64 
    1004:	48 83 ec 08          	sub    $0x8,%rsp
    1008:	48 8b 05 d9 2f 00 00 	mov    0x2fd9(%rip),%rax        # 3fe8 <__gmon_start__>
    100f:	48 85 c0             	test   %rax,%rax
    1012:	74 02                	je     1016 <_init+0x16>
    1014:	ff d0                	callq  *%rax
    1016:	48 83 c4 08          	add    $0x8,%rsp
    101a:	c3                   	retq   

Disassembly of section .plt:

0000000000001020 <.plt>:
    1020:	ff 35 4a 2f 00 00    	pushq  0x2f4a(%rip)        # 3f70 <_GLOBAL_OFFSET_TABLE_+0x8>
    1026:	f2 ff 25 4b 2f 00 00 	bnd jmpq *0x2f4b(%rip)        # 3f78 <_GLOBAL_OFFSET_TABLE_+0x10>
    102d:	0f 1f 00             	nopl   (%rax)
    1030:	f3 0f 1e fa          	endbr64 
    1034:	68 00 00 00 00       	pushq  $0x0
    1039:	f2 e9 e1 ff ff ff    	bnd jmpq 1020 <.plt>
    103f:	90                   	nop
    1040:	f3 0f 1e fa          	endbr64 
    1044:	68 01 00 00 00       	pushq  $0x1
    1049:	f2 e9 d1 ff ff ff    	bnd jmpq 1020 <.plt>
    104f:	90                   	nop
    1050:	f3 0f 1e fa          	endbr64 
    1054:	68 02 00 00 00       	pushq  $0x2
    1059:	f2 e9 c1 ff ff ff    	bnd jmpq 1020 <.plt>
    105f:	90                   	nop
    1060:	f3 0f 1e fa          	endbr64 
    1064:	68 03 00 00 00       	pushq  $0x3
    1069:	f2 e9 b1 ff ff ff    	bnd jmpq 1020 <.plt>
    106f:	90                   	nop
    1070:	f3 0f 1e fa          	endbr64 
    1074:	68 04 00 00 00       	pushq  $0x4
    1079:	f2 e9 a1 ff ff ff    	bnd jmpq 1020 <.plt>
    107f:	90                   	nop
    1080:	f3 0f 1e fa          	endbr64 
    1084:	68 05 00 00 00       	pushq  $0x5
    1089:	f2 e9 91 ff ff ff    	bnd jmpq 1020 <.plt>
    108f:	90                   	nop
    1090:	f3 0f 1e fa          	endbr64 
    1094:	68 06 00 00 00       	pushq  $0x6
    1099:	f2 e9 81 ff ff ff    	bnd jmpq 1020 <.plt>
    109f:	90                   	nop
    10a0:	f3 0f 1e fa          	endbr64 
    10a4:	68 07 00 00 00       	pushq  $0x7
    10a9:	f2 e9 71 ff ff ff    	bnd jmpq 1020 <.plt>
    10af:	90                   	nop
    10b0:	f3 0f 1e fa          	endbr64 
    10b4:	68 08 00 00 00       	pushq  $0x8
    10b9:	f2 e9 61 ff ff ff    	bnd jmpq 1020 <.plt>
    10bf:	90                   	nop
    10c0:	f3 0f 1e fa          	endbr64 
    10c4:	68 09 00 00 00       	pushq  $0x9
    10c9:	f2 e9 51 ff ff ff    	bnd jmpq 1020 <.plt>
    10cf:	90                   	nop

Disassembly of section .plt.got:

00000000000010d0 <__cxa_finalize@plt>:
    10d0:	f3 0f 1e fa          	endbr64 
    10d4:	f2 ff 25 f5 2e 00 00 	bnd jmpq *0x2ef5(%rip)        # 3fd0 <__cxa_finalize@GLIBC_2.2.5>
    10db:	0f 1f 44 00 00       	nopl   0x0(%rax,%rax,1)

Disassembly of section .plt.sec:

00000000000010e0 <std::ostream::put(char)@plt>:
    10e0:	f3 0f 1e fa          	endbr64 
    10e4:	f2 ff 25 95 2e 00 00 	bnd jmpq *0x2e95(%rip)        # 3f80 <std::ostream::put(char)@GLIBCXX_3.4>
    10eb:	0f 1f 44 00 00       	nopl   0x0(%rax,%rax,1)

00000000000010f0 <std::ostream& std::ostream::_M_insert<long long>(long long)@plt>:
    10f0:	f3 0f 1e fa          	endbr64 
    10f4:	f2 ff 25 8d 2e 00 00 	bnd jmpq *0x2e8d(%rip)        # 3f88 <std::ostream& std::ostream::_M_insert<long long>(long long)@GLIBCXX_3.4.9>
    10fb:	0f 1f 44 00 00       	nopl   0x0(%rax,%rax,1)

0000000000001100 <std::ostream::flush()@plt>:
    1100:	f3 0f 1e fa          	endbr64 
    1104:	f2 ff 25 85 2e 00 00 	bnd jmpq *0x2e85(%rip)        # 3f90 <std::ostream::flush()@GLIBCXX_3.4>
    110b:	0f 1f 44 00 00       	nopl   0x0(%rax,%rax,1)

0000000000001110 <__cxa_atexit@plt>:
    1110:	f3 0f 1e fa          	endbr64 
    1114:	f2 ff 25 7d 2e 00 00 	bnd jmpq *0x2e7d(%rip)        # 3f98 <__cxa_atexit@GLIBC_2.2.5>
    111b:	0f 1f 44 00 00       	nopl   0x0(%rax,%rax,1)

0000000000001120 <operator new(unsigned long)@plt>:
    1120:	f3 0f 1e fa          	endbr64 
    1124:	f2 ff 25 75 2e 00 00 	bnd jmpq *0x2e75(%rip)        # 3fa0 <operator new(unsigned long)@GLIBCXX_3.4>
    112b:	0f 1f 44 00 00       	nopl   0x0(%rax,%rax,1)

0000000000001130 <operator delete(void*, unsigned long)@plt>:
    1130:	f3 0f 1e fa          	endbr64 
    1134:	f2 ff 25 6d 2e 00 00 	bnd jmpq *0x2e6d(%rip)        # 3fa8 <operator delete(void*, unsigned long)@CXXABI_1.3.9>
    113b:	0f 1f 44 00 00       	nopl   0x0(%rax,%rax,1)

0000000000001140 <std::basic_ostream<char, std::char_traits<char> >& std::__ostream_insert<char, std::char_traits<char> >(std::basic_ostream<char, std::char_traits<char> >&, char const*, long)@plt>:
    1140:	f3 0f 1e fa          	endbr64 
    1144:	f2 ff 25 65 2e 00 00 	bnd jmpq *0x2e65(%rip)        # 3fb0 <std::basic_ostream<char, std::char_traits<char> >& std::__ostream_insert<char, std::char_traits<char> >(std::basic_ostream<char, std::char_traits<char> >&, char const*, long)@GLIBCXX_3.4.9>
    114b:	0f 1f 44 00 00       	nopl   0x0(%rax,%rax,1)

0000000000001150 <std::ctype<char>::_M_widen_init() const@plt>:
    1150:	f3 0f 1e fa          	endbr64 
    1154:	f2 ff 25 5d 2e 00 00 	bnd jmpq *0x2e5d(%rip)        # 3fb8 <std::ctype<char>::_M_widen_init() const@GLIBCXX_3.4.11>
    115b:	0f 1f 44 00 00       	nopl   0x0(%rax,%rax,1)

0000000000001160 <std::__throw_bad_cast()@plt>:
    1160:	f3 0f 1e fa          	endbr64 
    1164:	f2 ff 25 55 2e 00 00 	bnd jmpq *0x2e55(%rip)        # 3fc0 <std::__throw_bad_cast()@GLIBCXX_3.4>
    116b:	0f 1f 44 00 00       	nopl   0x0(%rax,%rax,1)

0000000000001170 <std::ios_base::Init::Init()@plt>:
    1170:	f3 0f 1e fa          	endbr64 
    1174:	f2 ff 25 4d 2e 00 00 	bnd jmpq *0x2e4d(%rip)        # 3fc8 <std::ios_base::Init::Init()@GLIBCXX_3.4>
    117b:	0f 1f 44 00 00       	nopl   0x0(%rax,%rax,1)

Disassembly of section .text:

0000000000001180 <main>:
    1180:	f3 0f 1e fa          	endbr64 
    1184:	41 57                	push   %r15
    1186:	bf 10 00 00 00       	mov    $0x10,%edi
    118b:	41 56                	push   %r14
    118d:	41 55                	push   %r13
    118f:	45 31 ed             	xor    %r13d,%r13d
    1192:	41 54                	push   %r12
    1194:	55                   	push   %rbp
    1195:	53                   	push   %rbx
    1196:	31 db                	xor    %ebx,%ebx
    1198:	48 83 ec 08          	sub    $0x8,%rsp
    119c:	e8 7f ff ff ff       	callq  1120 <operator new(unsigned long)@plt>
    11a1:	bf 18 00 00 00       	mov    $0x18,%edi
    11a6:	48 c7 40 08 00 00 00 	movq   $0x0,0x8(%rax)
    11ad:	00 
    11ae:	49 89 c4             	mov    %rax,%r12
    11b1:	48 8d 05 f0 2a 00 00 	lea    0x2af0(%rip),%rax        # 3ca8 <vtable for Base+0x10>
    11b8:	49 89 04 24          	mov    %rax,(%r12)
    11bc:	e8 5f ff ff ff       	callq  1120 <operator new(unsigned long)@plt>
    11c1:	66 0f ef c0          	pxor   %xmm0,%xmm0
    11c5:	bf 20 00 00 00       	mov    $0x20,%edi
    11ca:	0f 11 40 08          	movups %xmm0,0x8(%rax)
    11ce:	49 89 c7             	mov    %rax,%r15
    11d1:	48 8d 05 00 2b 00 00 	lea    0x2b00(%rip),%rax        # 3cd8 <vtable for Derived1+0x10>
    11d8:	49 89 07             	mov    %rax,(%r15)
    11db:	e8 40 ff ff ff       	callq  1120 <operator new(unsigned long)@plt>
    11e0:	66 0f ef c0          	pxor   %xmm0,%xmm0
    11e4:	48 c7 40 18 00 00 00 	movq   $0x0,0x18(%rax)
    11eb:	00 
    11ec:	49 89 c6             	mov    %rax,%r14
    11ef:	0f 11 40 08          	movups %xmm0,0x8(%rax)
    11f3:	48 8d 05 0e 2b 00 00 	lea    0x2b0e(%rip),%rax        # 3d08 <vtable for Derived2+0x10>
    11fa:	49 89 06             	mov    %rax,(%r14)
    11fd:	e9 09 01 00 00       	jmpq   130b <main+0x18b>
    1202:	66 0f 1f 44 00 00    	nopw   0x0(%rax,%rax,1)
    1208:	48 8b 4a 08          	mov    0x8(%rdx),%rcx
    120c:	48 8d 05 6d 03 00 00 	lea    0x36d(%rip),%rax        # 1580 <Base::function2(int)>
    1213:	49 01 5c 24 08       	add    %rbx,0x8(%r12)
    1218:	48 39 c1             	cmp    %rax,%rcx
    121b:	0f 85 22 01 00 00    	jne    1343 <main+0x1c3>
    1221:	48 8b 52 10          	mov    0x10(%rdx),%rdx
    1225:	48 8d 05 64 03 00 00 	lea    0x364(%rip),%rax        # 1590 <Base::function3(int)>
    122c:	48 8d 0c 1b          	lea    (%rbx,%rbx,1),%rcx
    1230:	49 01 4c 24 08       	add    %rcx,0x8(%r12)
    1235:	48 39 c2             	cmp    %rax,%rdx
    1238:	0f 85 24 01 00 00    	jne    1362 <main+0x1e2>
    123e:	44 89 ea             	mov    %r13d,%edx
    1241:	c1 fa 0a             	sar    $0xa,%edx
    1244:	48 63 d2             	movslq %edx,%rdx
    1247:	49 01 54 24 08       	add    %rdx,0x8(%r12)
    124c:	49 8b 17             	mov    (%r15),%rdx
    124f:	48 8d 05 5a 03 00 00 	lea    0x35a(%rip),%rax        # 15b0 <Derived1::function1(int)>
    1256:	48 8b 0a             	mov    (%rdx),%rcx
    1259:	48 39 c1             	cmp    %rax,%rcx
    125c:	0f 85 5e 01 00 00    	jne    13c0 <main+0x240>
    1262:	49 01 5f 10          	add    %rbx,0x10(%r15)
    1266:	48 8b 4a 08          	mov    0x8(%rdx),%rcx
    126a:	48 8d 05 0f 03 00 00 	lea    0x30f(%rip),%rax        # 1580 <Base::function2(int)>
    1271:	48 39 c1             	cmp    %rax,%rcx
    1274:	0f 85 36 01 00 00    	jne    13b0 <main+0x230>
    127a:	48 8d 0c 1b          	lea    (%rbx,%rbx,1),%rcx
    127e:	49 01 4f 08          	add    %rcx,0x8(%r15)
    1282:	48 8b 52 10          	mov    0x10(%rdx),%rdx
    1286:	48 8d 05 03 03 00 00 	lea    0x303(%rip),%rax        # 1590 <Base::function3(int)>
    128d:	48 39 c2             	cmp    %rax,%rdx
    1290:	0f 85 0a 01 00 00    	jne    13a0 <main+0x220>
    1296:	44 89 ea             	mov    %r13d,%edx
    1299:	c1 fa 0a             	sar    $0xa,%edx
    129c:	48 63 d2             	movslq %edx,%rdx
    129f:	49 01 57 08          	add    %rdx,0x8(%r15)
    12a3:	49 8b 16             	mov    (%r14),%rdx
    12a6:	48 8d 05 03 03 00 00 	lea    0x303(%rip),%rax        # 15b0 <Derived1::function1(int)>
    12ad:	48 8b 0a             	mov    (%rdx),%rcx
    12b0:	48 39 c1             	cmp    %rax,%rcx
    12b3:	0f 85 d7 00 00 00    	jne    1390 <main+0x210>
    12b9:	49 01 5e 10          	add    %rbx,0x10(%r14)
    12bd:	48 8b 4a 08          	mov    0x8(%rdx),%rcx
    12c1:	48 8d 05 f8 02 00 00 	lea    0x2f8(%rip),%rax        # 15c0 <Derived2::function2(int)>
    12c8:	48 39 c1             	cmp    %rax,%rcx
    12cb:	0f 85 af 00 00 00    	jne    1380 <main+0x200>
    12d1:	49 01 5e 18          	add    %rbx,0x18(%r14)
    12d5:	48 8b 52 10          	mov    0x10(%rdx),%rdx
    12d9:	48 8d 05 b0 02 00 00 	lea    0x2b0(%rip),%rax        # 1590 <Base::function3(int)>
    12e0:	48 39 c2             	cmp    %rax,%rdx
    12e3:	0f 85 87 00 00 00    	jne    1370 <main+0x1f0>
    12e9:	44 89 ea             	mov    %r13d,%edx
    12ec:	c1 fa 0a             	sar    $0xa,%edx
    12ef:	48 63 d2             	movslq %edx,%rdx
    12f2:	49 01 56 08          	add    %rdx,0x8(%r14)
    12f6:	48 83 c3 01          	add    $0x1,%rbx
    12fa:	41 83 c5 03          	add    $0x3,%r13d
    12fe:	48 81 fb 00 65 cd 1d 	cmp    $0x1dcd6500,%rbx
    1305:	0f 84 c4 00 00 00    	je     13cf <main+0x24f>
    130b:	49 8b 14 24          	mov    (%r12),%rdx
    130f:	48 8d 05 5a 02 00 00 	lea    0x25a(%rip),%rax        # 1570 <Base::function1(int)>
    1316:	89 dd                	mov    %ebx,%ebp
    1318:	48 8b 0a             	mov    (%rdx),%rcx
    131b:	48 39 c1             	cmp    %rax,%rcx
    131e:	0f 84 e4 fe ff ff    	je     1208 <main+0x88>
    1324:	89 de                	mov    %ebx,%esi
    1326:	4c 89 e7             	mov    %r12,%rdi
    1329:	ff d1                	callq  *%rcx
    132b:	49 8b 14 24          	mov    (%r12),%rdx
    132f:	48 8d 05 4a 02 00 00 	lea    0x24a(%rip),%rax        # 1580 <Base::function2(int)>
    1336:	48 8b 4a 08          	mov    0x8(%rdx),%rcx
    133a:	48 39 c1             	cmp    %rax,%rcx
    133d:	0f 84 de fe ff ff    	je     1221 <main+0xa1>
    1343:	89 ee                	mov    %ebp,%esi
    1345:	4c 89 e7             	mov    %r12,%rdi
    1348:	ff d1                	callq  *%rcx
    134a:	49 8b 14 24          	mov    (%r12),%rdx
    134e:	48 8d 05 3b 02 00 00 	lea    0x23b(%rip),%rax        # 1590 <Base::function3(int)>
    1355:	48 8b 52 10          	mov    0x10(%rdx),%rdx
    1359:	48 39 c2             	cmp    %rax,%rdx
    135c:	0f 84 dc fe ff ff    	je     123e <main+0xbe>
    1362:	89 ee                	mov    %ebp,%esi
    1364:	4c 89 e7             	mov    %r12,%rdi
    1367:	ff d2                	callq  *%rdx
    1369:	e9 de fe ff ff       	jmpq   124c <main+0xcc>
    136e:	66 90                	xchg   %ax,%ax
    1370:	89 ee                	mov    %ebp,%esi
    1372:	4c 89 f7             	mov    %r14,%rdi
    1375:	ff d2                	callq  *%rdx
    1377:	e9 7a ff ff ff       	jmpq   12f6 <main+0x176>
    137c:	0f 1f 40 00          	nopl   0x0(%rax)
    1380:	89 ee                	mov    %ebp,%esi
    1382:	4c 89 f7             	mov    %r14,%rdi
    1385:	ff d1                	callq  *%rcx
    1387:	49 8b 16             	mov    (%r14),%rdx
    138a:	e9 46 ff ff ff       	jmpq   12d5 <main+0x155>
    138f:	90                   	nop
    1390:	89 ee                	mov    %ebp,%esi
    1392:	4c 89 f7             	mov    %r14,%rdi
    1395:	ff d1                	callq  *%rcx
    1397:	49 8b 16             	mov    (%r14),%rdx
    139a:	e9 1e ff ff ff       	jmpq   12bd <main+0x13d>
    139f:	90                   	nop
    13a0:	89 ee                	mov    %ebp,%esi
    13a2:	4c 89 ff             	mov    %r15,%rdi
    13a5:	ff d2                	callq  *%rdx
    13a7:	e9 f7 fe ff ff       	jmpq   12a3 <main+0x123>
    13ac:	0f 1f 40 00          	nopl   0x0(%rax)
    13b0:	89 ee                	mov    %ebp,%esi
    13b2:	4c 89 ff             	mov    %r15,%rdi
    13b5:	ff d1                	callq  *%rcx
    13b7:	49 8b 17             	mov    (%r15),%rdx
    13ba:	e9 c3 fe ff ff       	jmpq   1282 <main+0x102>
    13bf:	90                   	nop
    13c0:	89 ee                	mov    %ebp,%esi
    13c2:	4c 89 ff             	mov    %r15,%rdi
    13c5:	ff d1                	callq  *%rcx
    13c7:	49 8b 17             	mov    (%r15),%rdx
    13ca:	e9 97 fe ff ff       	jmpq   1266 <main+0xe6>
    13cf:	49 8b 04 24          	mov    (%r12),%rax
    13d3:	4c 89 e7             	mov    %r12,%rdi
    13d6:	ff 50 18             	callq  *0x18(%rax)
    13d9:	49 8b 07             	mov    (%r15),%rax
    13dc:	4c 89 ff             	mov    %r15,%rdi
    13df:	ff 50 18             	callq  *0x18(%rax)
    13e2:	49 8b 06             	mov    (%r14),%rax
    13e5:	4c 89 f7             	mov    %r14,%rdi
    13e8:	ff 50 18             	callq  *0x18(%rax)
    13eb:	4c 89 e7             	mov    %r12,%rdi
    13ee:	be 10 00 00 00       	mov    $0x10,%esi
    13f3:	e8 38 fd ff ff       	callq  1130 <operator delete(void*, unsigned long)@plt>
    13f8:	4c 89 ff             	mov    %r15,%rdi
    13fb:	be 10 00 00 00       	mov    $0x10,%esi
    1400:	e8 2b fd ff ff       	callq  1130 <operator delete(void*, unsigned long)@plt>
    1405:	4c 89 f7             	mov    %r14,%rdi
    1408:	be 10 00 00 00       	mov    $0x10,%esi
    140d:	e8 1e fd ff ff       	callq  1130 <operator delete(void*, unsigned long)@plt>
    1412:	48 83 c4 08          	add    $0x8,%rsp
    1416:	31 c0                	xor    %eax,%eax
    1418:	5b                   	pop    %rbx
    1419:	5d                   	pop    %rbp
    141a:	41 5c                	pop    %r12
    141c:	41 5d                	pop    %r13
    141e:	41 5e                	pop    %r14
    1420:	41 5f                	pop    %r15
    1422:	c3                   	retq   
    1423:	66 66 2e 0f 1f 84 00 	data16 nopw %cs:0x0(%rax,%rax,1)
    142a:	00 00 00 00 
    142e:	66 90                	xchg   %ax,%ax

0000000000001430 <_GLOBAL__sub_I_main>:
    1430:	f3 0f 1e fa          	endbr64 
    1434:	48 83 ec 08          	sub    $0x8,%rsp
    1438:	48 8d 3d 12 2d 00 00 	lea    0x2d12(%rip),%rdi        # 4151 <std::__ioinit>
    143f:	e8 2c fd ff ff       	callq  1170 <std::ios_base::Init::Init()@plt>
    1444:	48 8b 3d ad 2b 00 00 	mov    0x2bad(%rip),%rdi        # 3ff8 <std::ios_base::Init::~Init()@GLIBCXX_3.4>
    144b:	48 83 c4 08          	add    $0x8,%rsp
    144f:	48 8d 15 b2 2b 00 00 	lea    0x2bb2(%rip),%rdx        # 4008 <__dso_handle>
    1456:	48 8d 35 f4 2c 00 00 	lea    0x2cf4(%rip),%rsi        # 4151 <std::__ioinit>
    145d:	e9 ae fc ff ff       	jmpq   1110 <__cxa_atexit@plt>
    1462:	66 2e 0f 1f 84 00 00 	nopw   %cs:0x0(%rax,%rax,1)
    1469:	00 00 00 
    146c:	0f 1f 40 00          	nopl   0x0(%rax)

0000000000001470 <_start>:
    1470:	f3 0f 1e fa          	endbr64 
    1474:	31 ed                	xor    %ebp,%ebp
    1476:	49 89 d1             	mov    %rdx,%r9
    1479:	5e                   	pop    %rsi
    147a:	48 89 e2             	mov    %rsp,%rdx
    147d:	48 83 e4 f0          	and    $0xfffffffffffffff0,%rsp
    1481:	50                   	push   %rax
    1482:	54                   	push   %rsp
    1483:	4c 8d 05 c6 03 00 00 	lea    0x3c6(%rip),%r8        # 1850 <__libc_csu_fini>
    148a:	48 8d 0d 4f 03 00 00 	lea    0x34f(%rip),%rcx        # 17e0 <__libc_csu_init>
    1491:	48 8d 3d e8 fc ff ff 	lea    -0x318(%rip),%rdi        # 1180 <main>
    1498:	ff 15 42 2b 00 00    	callq  *0x2b42(%rip)        # 3fe0 <__libc_start_main@GLIBC_2.2.5>
    149e:	f4                   	hlt    
    149f:	90                   	nop

00000000000014a0 <deregister_tm_clones>:
    14a0:	48 8d 3d 69 2b 00 00 	lea    0x2b69(%rip),%rdi        # 4010 <__TMC_END__>
    14a7:	48 8d 05 62 2b 00 00 	lea    0x2b62(%rip),%rax        # 4010 <__TMC_END__>
    14ae:	48 39 f8             	cmp    %rdi,%rax
    14b1:	74 15                	je     14c8 <deregister_tm_clones+0x28>
    14b3:	48 8b 05 1e 2b 00 00 	mov    0x2b1e(%rip),%rax        # 3fd8 <_ITM_deregisterTMCloneTable>
    14ba:	48 85 c0             	test   %rax,%rax
    14bd:	74 09                	je     14c8 <deregister_tm_clones+0x28>
    14bf:	ff e0                	jmpq   *%rax
    14c1:	0f 1f 80 00 00 00 00 	nopl   0x0(%rax)
    14c8:	c3                   	retq   
    14c9:	0f 1f 80 00 00 00 00 	nopl   0x0(%rax)

00000000000014d0 <register_tm_clones>:
    14d0:	48 8d 3d 39 2b 00 00 	lea    0x2b39(%rip),%rdi        # 4010 <__TMC_END__>
    14d7:	48 8d 35 32 2b 00 00 	lea    0x2b32(%rip),%rsi        # 4010 <__TMC_END__>
    14de:	48 29 fe             	sub    %rdi,%rsi
    14e1:	48 89 f0             	mov    %rsi,%rax
    14e4:	48 c1 ee 3f          	shr    $0x3f,%rsi
    14e8:	48 c1 f8 03          	sar    $0x3,%rax
    14ec:	48 01 c6             	add    %rax,%rsi
    14ef:	48 d1 fe             	sar    %rsi
    14f2:	74 14                	je     1508 <register_tm_clones+0x38>
    14f4:	48 8b 05 f5 2a 00 00 	mov    0x2af5(%rip),%rax        # 3ff0 <_ITM_registerTMCloneTable>
    14fb:	48 85 c0             	test   %rax,%rax
    14fe:	74 08                	je     1508 <register_tm_clones+0x38>
    1500:	ff e0                	jmpq   *%rax
    1502:	66 0f 1f 44 00 00    	nopw   0x0(%rax,%rax,1)
    1508:	c3                   	retq   
    1509:	0f 1f 80 00 00 00 00 	nopl   0x0(%rax)

0000000000001510 <__do_global_dtors_aux>:
    1510:	f3 0f 1e fa          	endbr64 
    1514:	80 3d 35 2c 00 00 00 	cmpb   $0x0,0x2c35(%rip)        # 4150 <completed.8061>
    151b:	75 2b                	jne    1548 <__do_global_dtors_aux+0x38>
    151d:	55                   	push   %rbp
    151e:	48 83 3d aa 2a 00 00 	cmpq   $0x0,0x2aaa(%rip)        # 3fd0 <__cxa_finalize@GLIBC_2.2.5>
    1525:	00 
    1526:	48 89 e5             	mov    %rsp,%rbp
    1529:	74 0c                	je     1537 <__do_global_dtors_aux+0x27>
    152b:	48 8b 3d d6 2a 00 00 	mov    0x2ad6(%rip),%rdi        # 4008 <__dso_handle>
    1532:	e8 99 fb ff ff       	callq  10d0 <__cxa_finalize@plt>
    1537:	e8 64 ff ff ff       	callq  14a0 <deregister_tm_clones>
    153c:	c6 05 0d 2c 00 00 01 	movb   $0x1,0x2c0d(%rip)        # 4150 <completed.8061>
    1543:	5d                   	pop    %rbp
    1544:	c3                   	retq   
    1545:	0f 1f 00             	nopl   (%rax)
    1548:	c3                   	retq   
    1549:	0f 1f 80 00 00 00 00 	nopl   0x0(%rax)

0000000000001550 <frame_dummy>:
    1550:	f3 0f 1e fa          	endbr64 
    1554:	e9 77 ff ff ff       	jmpq   14d0 <register_tm_clones>
    1559:	0f 1f 80 00 00 00 00 	nopl   0x0(%rax)

0000000000001560 <std::ctype<char>::do_widen(char) const>:
    1560:	f3 0f 1e fa          	endbr64 
    1564:	89 f0                	mov    %esi,%eax
    1566:	c3                   	retq   
    1567:	66 0f 1f 84 00 00 00 	nopw   0x0(%rax,%rax,1)
    156e:	00 00 

0000000000001570 <Base::function1(int)>:
    1570:	f3 0f 1e fa          	endbr64 
    1574:	48 63 f6             	movslq %esi,%rsi
    1577:	48 01 77 08          	add    %rsi,0x8(%rdi)
    157b:	c3                   	retq   
    157c:	0f 1f 40 00          	nopl   0x0(%rax)

0000000000001580 <Base::function2(int)>:
    1580:	f3 0f 1e fa          	endbr64 
    1584:	01 f6                	add    %esi,%esi
    1586:	48 63 f6             	movslq %esi,%rsi
    1589:	48 01 77 08          	add    %rsi,0x8(%rdi)
    158d:	c3                   	retq   
    158e:	66 90                	xchg   %ax,%ax

0000000000001590 <Base::function3(int)>:
    1590:	f3 0f 1e fa          	endbr64 
    1594:	8d 04 76             	lea    (%rsi,%rsi,2),%eax
    1597:	c1 f8 0a             	sar    $0xa,%eax
    159a:	48 98                	cltq   
    159c:	48 01 47 08          	add    %rax,0x8(%rdi)
    15a0:	c3                   	retq   
    15a1:	66 2e 0f 1f 84 00 00 	nopw   %cs:0x0(%rax,%rax,1)
    15a8:	00 00 00 
    15ab:	0f 1f 44 00 00       	nopl   0x0(%rax,%rax,1)

00000000000015b0 <Derived1::function1(int)>:
    15b0:	f3 0f 1e fa          	endbr64 
    15b4:	48 63 f6             	movslq %esi,%rsi
    15b7:	48 01 77 10          	add    %rsi,0x10(%rdi)
    15bb:	c3                   	retq   
    15bc:	0f 1f 40 00          	nopl   0x0(%rax)

00000000000015c0 <Derived2::function2(int)>:
    15c0:	f3 0f 1e fa          	endbr64 
    15c4:	48 63 f6             	movslq %esi,%rsi
    15c7:	48 01 77 18          	add    %rsi,0x18(%rdi)
    15cb:	c3                   	retq   
    15cc:	0f 1f 40 00          	nopl   0x0(%rax)

00000000000015d0 <Derived2::result()>:
    15d0:	f3 0f 1e fa          	endbr64 
    15d4:	41 54                	push   %r12
    15d6:	ba 09 00 00 00       	mov    $0x9,%edx
    15db:	48 8d 35 22 0a 00 00 	lea    0xa22(%rip),%rsi        # 2004 <_IO_stdin_used+0x4>
    15e2:	55                   	push   %rbp
    15e3:	53                   	push   %rbx
    15e4:	48 89 fb             	mov    %rdi,%rbx
    15e7:	48 8d 3d 52 2a 00 00 	lea    0x2a52(%rip),%rdi        # 4040 <std::cout@@GLIBCXX_3.4>
    15ee:	e8 4d fb ff ff       	callq  1140 <std::basic_ostream<char, std::char_traits<char> >& std::__ostream_insert<char, std::char_traits<char> >(std::basic_ostream<char, std::char_traits<char> >&, char const*, long)@plt>
    15f3:	48 8b 73 10          	mov    0x10(%rbx),%rsi
    15f7:	48 8d 3d 42 2a 00 00 	lea    0x2a42(%rip),%rdi        # 4040 <std::cout@@GLIBCXX_3.4>
    15fe:	48 03 73 08          	add    0x8(%rbx),%rsi
    1602:	48 03 73 18          	add    0x18(%rbx),%rsi
    1606:	e8 e5 fa ff ff       	callq  10f0 <std::ostream& std::ostream::_M_insert<long long>(long long)@plt>
    160b:	48 89 c5             	mov    %rax,%rbp
    160e:	48 8b 00             	mov    (%rax),%rax
    1611:	48 8b 40 e8          	mov    -0x18(%rax),%rax
    1615:	4c 8b a4 05 f0 00 00 	mov    0xf0(%rbp,%rax,1),%r12
    161c:	00 
    161d:	4d 85 e4             	test   %r12,%r12
    1620:	74 51                	je     1673 <Derived2::result()+0xa3>
    1622:	41 80 7c 24 38 00    	cmpb   $0x0,0x38(%r12)
    1628:	74 1e                	je     1648 <Derived2::result()+0x78>
    162a:	41 0f be 74 24 43    	movsbl 0x43(%r12),%esi
    1630:	48 89 ef             	mov    %rbp,%rdi
    1633:	e8 a8 fa ff ff       	callq  10e0 <std::ostream::put(char)@plt>
    1638:	5b                   	pop    %rbx
    1639:	5d                   	pop    %rbp
    163a:	48 89 c7             	mov    %rax,%rdi
    163d:	41 5c                	pop    %r12
    163f:	e9 bc fa ff ff       	jmpq   1100 <std::ostream::flush()@plt>
    1644:	0f 1f 40 00          	nopl   0x0(%rax)
    1648:	4c 89 e7             	mov    %r12,%rdi
    164b:	e8 00 fb ff ff       	callq  1150 <std::ctype<char>::_M_widen_init() const@plt>
    1650:	49 8b 04 24          	mov    (%r12),%rax
    1654:	be 0a 00 00 00       	mov    $0xa,%esi
    1659:	48 8d 15 00 ff ff ff 	lea    -0x100(%rip),%rdx        # 1560 <std::ctype<char>::do_widen(char) const>
    1660:	48 8b 40 30          	mov    0x30(%rax),%rax
    1664:	48 39 d0             	cmp    %rdx,%rax
    1667:	74 c7                	je     1630 <Derived2::result()+0x60>
    1669:	4c 89 e7             	mov    %r12,%rdi
    166c:	ff d0                	callq  *%rax
    166e:	0f be f0             	movsbl %al,%esi
    1671:	eb bd                	jmp    1630 <Derived2::result()+0x60>
    1673:	e8 e8 fa ff ff       	callq  1160 <std::__throw_bad_cast()@plt>
    1678:	0f 1f 84 00 00 00 00 	nopl   0x0(%rax,%rax,1)
    167f:	00 

0000000000001680 <Base::result()>:
    1680:	f3 0f 1e fa          	endbr64 
    1684:	41 54                	push   %r12
    1686:	ba 05 00 00 00       	mov    $0x5,%edx
    168b:	48 8d 35 7c 09 00 00 	lea    0x97c(%rip),%rsi        # 200e <_IO_stdin_used+0xe>
    1692:	55                   	push   %rbp
    1693:	48 89 fd             	mov    %rdi,%rbp
    1696:	48 8d 3d a3 29 00 00 	lea    0x29a3(%rip),%rdi        # 4040 <std::cout@@GLIBCXX_3.4>
    169d:	48 83 ec 08          	sub    $0x8,%rsp
    16a1:	e8 9a fa ff ff       	callq  1140 <std::basic_ostream<char, std::char_traits<char> >& std::__ostream_insert<char, std::char_traits<char> >(std::basic_ostream<char, std::char_traits<char> >&, char const*, long)@plt>
    16a6:	48 8b 75 08          	mov    0x8(%rbp),%rsi
    16aa:	48 8d 3d 8f 29 00 00 	lea    0x298f(%rip),%rdi        # 4040 <std::cout@@GLIBCXX_3.4>
    16b1:	e8 3a fa ff ff       	callq  10f0 <std::ostream& std::ostream::_M_insert<long long>(long long)@plt>
    16b6:	48 89 c5             	mov    %rax,%rbp
    16b9:	48 8b 00             	mov    (%rax),%rax
    16bc:	48 8b 40 e8          	mov    -0x18(%rax),%rax
    16c0:	4c 8b a4 05 f0 00 00 	mov    0xf0(%rbp,%rax,1),%r12
    16c7:	00 
    16c8:	4d 85 e4             	test   %r12,%r12
    16cb:	74 56                	je     1723 <Base::result()+0xa3>
    16cd:	41 80 7c 24 38 00    	cmpb   $0x0,0x38(%r12)
    16d3:	74 23                	je     16f8 <Base::result()+0x78>
    16d5:	41 0f be 74 24 43    	movsbl 0x43(%r12),%esi
    16db:	48 89 ef             	mov    %rbp,%rdi
    16de:	e8 fd f9 ff ff       	callq  10e0 <std::ostream::put(char)@plt>
    16e3:	48 83 c4 08          	add    $0x8,%rsp
    16e7:	5d                   	pop    %rbp
    16e8:	48 89 c7             	mov    %rax,%rdi
    16eb:	41 5c                	pop    %r12
    16ed:	e9 0e fa ff ff       	jmpq   1100 <std::ostream::flush()@plt>
    16f2:	66 0f 1f 44 00 00    	nopw   0x0(%rax,%rax,1)
    16f8:	4c 89 e7             	mov    %r12,%rdi
    16fb:	e8 50 fa ff ff       	callq  1150 <std::ctype<char>::_M_widen_init() const@plt>
    1700:	49 8b 04 24          	mov    (%r12),%rax
    1704:	be 0a 00 00 00       	mov    $0xa,%esi
    1709:	48 8d 15 50 fe ff ff 	lea    -0x1b0(%rip),%rdx        # 1560 <std::ctype<char>::do_widen(char) const>
    1710:	48 8b 40 30          	mov    0x30(%rax),%rax
    1714:	48 39 d0             	cmp    %rdx,%rax
    1717:	74 c2                	je     16db <Base::result()+0x5b>
    1719:	4c 89 e7             	mov    %r12,%rdi
    171c:	ff d0                	callq  *%rax
    171e:	0f be f0             	movsbl %al,%esi
    1721:	eb b8                	jmp    16db <Base::result()+0x5b>
    1723:	e8 38 fa ff ff       	callq  1160 <std::__throw_bad_cast()@plt>
    1728:	0f 1f 84 00 00 00 00 	nopl   0x0(%rax,%rax,1)
    172f:	00 

0000000000001730 <Derived1::result()>:
    1730:	f3 0f 1e fa          	endbr64 
    1734:	41 54                	push   %r12
    1736:	ba 09 00 00 00       	mov    $0x9,%edx
    173b:	48 8d 35 d2 08 00 00 	lea    0x8d2(%rip),%rsi        # 2014 <_IO_stdin_used+0x14>
    1742:	55                   	push   %rbp
    1743:	48 89 fd             	mov    %rdi,%rbp
    1746:	48 8d 3d f3 28 00 00 	lea    0x28f3(%rip),%rdi        # 4040 <std::cout@@GLIBCXX_3.4>
    174d:	48 83 ec 08          	sub    $0x8,%rsp
    1751:	e8 ea f9 ff ff       	callq  1140 <std::basic_ostream<char, std::char_traits<char> >& std::__ostream_insert<char, std::char_traits<char> >(std::basic_ostream<char, std::char_traits<char> >&, char const*, long)@plt>
    1756:	48 8b 75 10          	mov    0x10(%rbp),%rsi
    175a:	48 8d 3d df 28 00 00 	lea    0x28df(%rip),%rdi        # 4040 <std::cout@@GLIBCXX_3.4>
    1761:	48 03 75 08          	add    0x8(%rbp),%rsi
    1765:	e8 86 f9 ff ff       	callq  10f0 <std::ostream& std::ostream::_M_insert<long long>(long long)@plt>
    176a:	48 89 c5             	mov    %rax,%rbp
    176d:	48 8b 00             	mov    (%rax),%rax
    1770:	48 8b 40 e8          	mov    -0x18(%rax),%rax
    1774:	4c 8b a4 05 f0 00 00 	mov    0xf0(%rbp,%rax,1),%r12
    177b:	00 
    177c:	4d 85 e4             	test   %r12,%r12
    177f:	74 5a                	je     17db <Derived1::result()+0xab>
    1781:	41 80 7c 24 38 00    	cmpb   $0x0,0x38(%r12)
    1787:	74 27                	je     17b0 <Derived1::result()+0x80>
    1789:	41 0f be 74 24 43    	movsbl 0x43(%r12),%esi
    178f:	48 89 ef             	mov    %rbp,%rdi
    1792:	e8 49 f9 ff ff       	callq  10e0 <std::ostream::put(char)@plt>
    1797:	48 83 c4 08          	add    $0x8,%rsp
    179b:	5d                   	pop    %rbp
    179c:	48 89 c7             	mov    %rax,%rdi
    179f:	41 5c                	pop    %r12
    17a1:	e9 5a f9 ff ff       	jmpq   1100 <std::ostream::flush()@plt>
    17a6:	66 2e 0f 1f 84 00 00 	nopw   %cs:0x0(%rax,%rax,1)
    17ad:	00 00 00 
    17b0:	4c 89 e7             	mov    %r12,%rdi
    17b3:	e8 98 f9 ff ff       	callq  1150 <std::ctype<char>::_M_widen_init() const@plt>
    17b8:	49 8b 04 24          	mov    (%r12),%rax
    17bc:	be 0a 00 00 00       	mov    $0xa,%esi
    17c1:	48 8d 15 98 fd ff ff 	lea    -0x268(%rip),%rdx        # 1560 <std::ctype<char>::do_widen(char) const>
    17c8:	48 8b 40 30          	mov    0x30(%rax),%rax
    17cc:	48 39 d0             	cmp    %rdx,%rax
    17cf:	74 be                	je     178f <Derived1::result()+0x5f>
    17d1:	4c 89 e7             	mov    %r12,%rdi
    17d4:	ff d0                	callq  *%rax
    17d6:	0f be f0             	movsbl %al,%esi
    17d9:	eb b4                	jmp    178f <Derived1::result()+0x5f>
    17db:	e8 80 f9 ff ff       	callq  1160 <std::__throw_bad_cast()@plt>

00000000000017e0 <__libc_csu_init>:
    17e0:	f3 0f 1e fa          	endbr64 
    17e4:	41 57                	push   %r15
    17e6:	4c 8d 3d 93 24 00 00 	lea    0x2493(%rip),%r15        # 3c80 <__frame_dummy_init_array_entry>
    17ed:	41 56                	push   %r14
    17ef:	49 89 d6             	mov    %rdx,%r14
    17f2:	41 55                	push   %r13
    17f4:	49 89 f5             	mov    %rsi,%r13
    17f7:	41 54                	push   %r12
    17f9:	41 89 fc             	mov    %edi,%r12d
    17fc:	55                   	push   %rbp
    17fd:	48 8d 2d 8c 24 00 00 	lea    0x248c(%rip),%rbp        # 3c90 <__do_global_dtors_aux_fini_array_entry>
    1804:	53                   	push   %rbx
    1805:	4c 29 fd             	sub    %r15,%rbp
    1808:	48 83 ec 08          	sub    $0x8,%rsp
    180c:	e8 ef f7 ff ff       	callq  1000 <_init>
    1811:	48 c1 fd 03          	sar    $0x3,%rbp
    1815:	74 1f                	je     1836 <__libc_csu_init+0x56>
    1817:	31 db                	xor    %ebx,%ebx
    1819:	0f 1f 80 00 00 00 00 	nopl   0x0(%rax)
    1820:	4c 89 f2             	mov    %r14,%rdx
    1823:	4c 89 ee             	mov    %r13,%rsi
    1826:	44 89 e7             	mov    %r12d,%edi
    1829:	41 ff 14 df          	callq  *(%r15,%rbx,8)
    182d:	48 83 c3 01          	add    $0x1,%rbx
    1831:	48 39 dd             	cmp    %rbx,%rbp
    1834:	75 ea                	jne    1820 <__libc_csu_init+0x40>
    1836:	48 83 c4 08          	add    $0x8,%rsp
    183a:	5b                   	pop    %rbx
    183b:	5d                   	pop    %rbp
    183c:	41 5c                	pop    %r12
    183e:	41 5d                	pop    %r13
    1840:	41 5e                	pop    %r14
    1842:	41 5f                	pop    %r15
    1844:	c3                   	retq   
    1845:	66 66 2e 0f 1f 84 00 	data16 nopw %cs:0x0(%rax,%rax,1)
    184c:	00 00 00 00 

0000000000001850 <__libc_csu_fini>:
    1850:	f3 0f 1e fa          	endbr64 
    1854:	c3                   	retq   

Disassembly of section .fini:

0000000000001858 <_fini>:
    1858:	f3 0f 1e fa          	endbr64 
    185c:	48 83 ec 08          	sub    $0x8,%rsp
    1860:	48 83 c4 08          	add    $0x8,%rsp
    1864:	c3                   	retq   
