
vtbl-o3:     file format elf64-x86-64

Contents of section .interp:
 0318 2f6c6962 36342f6c 642d6c69 6e75782d  /lib64/ld-linux-
 0328 7838362d 36342e73 6f2e3200           x86-64.so.2.    
Contents of section .note.gnu.property:
 0338 04000000 10000000 05000000 474e5500  ............GNU.
 0348 020000c0 04000000 03000000 00000000  ................
Contents of section .note.gnu.build-id:
 0358 04000000 14000000 03000000 474e5500  ............GNU.
 0368 5c202c63 88b3bfea ca08893f 2df7b3d9  \ ,c.......?-...
 0378 4d655d6e                             Me]n            
Contents of section .note.ABI-tag:
 037c 04000000 10000000 01000000 474e5500  ............GNU.
 038c 00000000 03000000 02000000 00000000  ................
Contents of section .gnu.hash:
 03a0 03000000 11000000 01000000 06000000  ................
 03b0 0000b100 01000400 11000000 00000000  ................
 03c0 12000000 d165ce6d 72854c1b 15980c43  .....e.mr.L....C
Contents of section .dynsym:
 03d0 00000000 00000000 00000000 00000000  ................
 03e0 00000000 00000000 45010000 12000000  ........E.......
 03f0 00000000 00000000 00000000 00000000  ................
 0400 72010000 12000000 00000000 00000000  r...............
 0410 00000000 00000000 90000000 11000000  ................
 0420 00000000 00000000 00000000 00000000  ................
 0430 b2010000 12000000 00000000 00000000  ................
 0440 00000000 00000000 80010000 12000000  ................
 0450 00000000 00000000 00000000 00000000  ................
 0460 55000000 12000000 00000000 00000000  U...............
 0470 00000000 00000000 f7000000 12000000  ................
 0480 00000000 00000000 00000000 00000000  ................
 0490 51010000 12000000 00000000 00000000  Q...............
 04a0 00000000 00000000 df000000 12000000  ................
 04b0 00000000 00000000 00000000 00000000  ................
 04c0 b6000000 11000000 00000000 00000000  ................
 04d0 00000000 00000000 86010000 12000000  ................
 04e0 00000000 00000000 00000000 00000000  ................
 04f0 1f000000 20000000 00000000 00000000  .... ...........
 0500 00000000 00000000 ce010000 12000000  ................
 0510 00000000 00000000 00000000 00000000  ................
 0520 10000000 20000000 00000000 00000000  .... ...........
 0530 00000000 00000000 3b000000 20000000  ........;... ...
 0540 00000000 00000000 00000000 00000000  ................
 0550 78000000 12000000 00000000 00000000  x...............
 0560 00000000 00000000 bf010000 22000000  ............"...
 0570 00000000 00000000 00000000 00000000  ................
 0580 5d000000 22001000 70130000 00000000  ]..."...p.......
 0590 07000000 00000000 9e010000 11001b00  ................
 05a0 40400000 00000000 10010000 00000000  @@..............
Contents of section .dynstr:
 05b0 006c6962 73746463 2b2b2e73 6f2e3600  .libstdc++.so.6.
 05c0 5f5f676d 6f6e5f73 74617274 5f5f005f  __gmon_start__._
 05d0 49544d5f 64657265 67697374 6572544d  ITM_deregisterTM
 05e0 436c6f6e 65546162 6c65005f 49544d5f  CloneTable._ITM_
 05f0 72656769 73746572 544d436c 6f6e6554  registerTMCloneT
 0600 61626c65 005f5a64 6c50766d 005f5a4e  able._ZdlPvm._ZN
 0610 4b537435 63747970 65496345 38646f5f  KSt5ctypeIcE8do_
 0620 77696465 6e456300 5f5a4e53 7438696f  widenEc._ZNSt8io
 0630 735f6261 73653449 6e697444 31457600  s_base4InitD1Ev.
 0640 5f5a5456 4e31305f 5f637878 61626976  _ZTVN10__cxxabiv
 0650 3131375f 5f636c61 73735f74 7970655f  117__class_type_
 0660 696e666f 45005f5a 54564e31 305f5f63  infoE._ZTVN10__c
 0670 78786162 69763132 305f5f73 695f636c  xxabiv120__si_cl
 0680 6173735f 74797065 5f696e66 6f45005f  ass_type_infoE._
 0690 5a537431 365f5f74 68726f77 5f626164  ZSt16__throw_bad
 06a0 5f636173 7476005f 5a537431 365f5f6f  _castv._ZSt16__o
 06b0 73747265 616d5f69 6e736572 74496353  stream_insertIcS
 06c0 74313163 6861725f 74726169 74734963  t11char_traitsIc
 06d0 45455253 74313362 61736963 5f6f7374  EERSt13basic_ost
 06e0 7265616d 49545f54 305f4553 365f504b  reamIT_T0_ES6_PK
 06f0 53335f6c 005f5a4e 536f3370 75744563  S3_l._ZNSo3putEc
 0700 005f5a4e 4b537435 63747970 65496345  ._ZNKSt5ctypeIcE
 0710 31335f4d 5f776964 656e5f69 6e697445  13_M_widen_initE
 0720 76005f5a 4e536f35 666c7573 68457600  v._ZNSo5flushEv.
 0730 5f5a6e77 6d005f5a 4e537438 696f735f  _Znwm._ZNSt8ios_
 0740 62617365 34496e69 74433145 76005f5a  base4InitC1Ev._Z
 0750 53743463 6f757400 6c696263 2e736f2e  St4cout.libc.so.
 0760 36005f5f 6378615f 61746578 6974005f  6.__cxa_atexit._
 0770 5f637861 5f66696e 616c697a 65005f5f  _cxa_finalize.__
 0780 6c696263 5f737461 72745f6d 61696e00  libc_start_main.
 0790 474c4942 435f322e 322e3500 474c4942  GLIBC_2.2.5.GLIB
 07a0 4358585f 332e342e 31310047 4c494243  CXX_3.4.11.GLIBC
 07b0 58585f33 2e342e39 00435858 4142495f  XX_3.4.9.CXXABI_
 07c0 312e332e 39004358 58414249 5f312e33  1.3.9.CXXABI_1.3
 07d0 00474c49 42435858 5f332e34 00        .GLIBCXX_3.4.   
Contents of section .gnu.version:
 07de 00000200 02000400 03000200 05000600  ................
 07ee 07000200 04000200 00000300 00000000  ................
 07fe 02000300 01000200                    ........        
Contents of section .gnu.version_r:
 0808 01000100 a8010000 10000000 20000000  ............ ...
 0818 751a6909 00000300 e0010000 00000000  u.i.............
 0828 01000500 01000000 10000000 00000000  ................
 0838 61f89702 00000700 ec010000 10000000  a...............
 0848 897f2902 00000600 fb010000 10000000  ..).............
 0858 79d1af0b 00000500 09020000 10000000  y...............
 0868 d3af6b05 00000400 16020000 10000000  ..k.............
 0878 74299208 00000200 21020000 00000000  t)......!.......
Contents of section .rela.dyn:
 0888 a03c0000 00000000 08000000 00000000  .<..............
 0898 60130000 00000000 a83c0000 00000000  `........<......
 08a8 08000000 00000000 40120000 00000000  ........@.......
 08b8 b03c0000 00000000 08000000 00000000  .<..............
 08c8 20130000 00000000 c03c0000 00000000   ........<......
 08d8 08000000 00000000 303d0000 00000000  ........0=......
 08e8 c83c0000 00000000 08000000 00000000  .<..............
 08f8 10140000 00000000 d03c0000 00000000  .........<......
 0908 08000000 00000000 a0140000 00000000  ................
 0918 d83c0000 00000000 08000000 00000000  .<..............
 0928 30150000 00000000 e83c0000 00000000  0........<......
 0938 08000000 00000000 403d0000 00000000  ........@=......
 0948 f03c0000 00000000 08000000 00000000  .<..............
 0958 c0150000 00000000 f83c0000 00000000  .........<......
 0968 08000000 00000000 a0140000 00000000  ................
 0978 003d0000 00000000 08000000 00000000  .=..............
 0988 30150000 00000000 103d0000 00000000  0........=......
 0998 08000000 00000000 583d0000 00000000  ........X=......
 09a8 183d0000 00000000 08000000 00000000  .=..............
 09b8 c0150000 00000000 203d0000 00000000  ........ =......
 09c8 08000000 00000000 80130000 00000000  ................
 09d8 283d0000 00000000 08000000 00000000  (=..............
 09e8 30150000 00000000 383d0000 00000000  0.......8=......
 09f8 08000000 00000000 61200000 00000000  ........a ......
 0a08 483d0000 00000000 08000000 00000000  H=..............
 0a18 68200000 00000000 503d0000 00000000  h ......P=......
 0a28 08000000 00000000 303d0000 00000000  ........0=......
 0a38 603d0000 00000000 08000000 00000000  `=..............
 0a48 78200000 00000000 683d0000 00000000  x ......h=......
 0a58 08000000 00000000 403d0000 00000000  ........@=......
 0a68 08400000 00000000 08000000 00000000  .@..............
 0a78 08400000 00000000 303d0000 00000000  .@......0=......
 0a88 01000000 03000000 10000000 00000000  ................
 0a98 403d0000 00000000 01000000 0a000000  @=..............
 0aa8 10000000 00000000 583d0000 00000000  ........X=......
 0ab8 01000000 0a000000 10000000 00000000  ................
 0ac8 d03f0000 00000000 06000000 11000000  .?..............
 0ad8 00000000 00000000 d83f0000 00000000  .........?......
 0ae8 06000000 0c000000 00000000 00000000  ................
 0af8 e03f0000 00000000 06000000 0d000000  .?..............
 0b08 00000000 00000000 e83f0000 00000000  .........?......
 0b18 06000000 0e000000 00000000 00000000  ................
 0b28 f03f0000 00000000 06000000 0f000000  .?..............
 0b38 00000000 00000000 f83f0000 00000000  .........?......
 0b48 06000000 10000000 00000000 00000000  ................
 0b58 40400000 00000000 05000000 13000000  @@..............
 0b68 00000000 00000000                    ........        
Contents of section .rela.plt:
 0b70 883f0000 00000000 07000000 01000000  .?..............
 0b80 00000000 00000000 903f0000 00000000  .........?......
 0b90 07000000 02000000 00000000 00000000  ................
 0ba0 983f0000 00000000 07000000 04000000  .?..............
 0bb0 00000000 00000000 a03f0000 00000000  .........?......
 0bc0 07000000 05000000 00000000 00000000  ................
 0bd0 a83f0000 00000000 07000000 06000000  .?..............
 0be0 00000000 00000000 b03f0000 00000000  .........?......
 0bf0 07000000 07000000 00000000 00000000  ................
 0c00 b83f0000 00000000 07000000 08000000  .?..............
 0c10 00000000 00000000 c03f0000 00000000  .........?......
 0c20 07000000 09000000 00000000 00000000  ................
 0c30 c83f0000 00000000 07000000 0b000000  .?..............
 0c40 00000000 00000000                    ........        
Contents of section .init:
 1000 f30f1efa 4883ec08 488b05d9 2f000048  ....H...H.../..H
 1010 85c07402 ffd04883 c408c3             ..t...H....     
Contents of section .plt:
 1020 ff35522f 0000f2ff 25532f00 000f1f00  .5R/....%S/.....
 1030 f30f1efa 68000000 00f2e9e1 ffffff90  ....h...........
 1040 f30f1efa 68010000 00f2e9d1 ffffff90  ....h...........
 1050 f30f1efa 68020000 00f2e9c1 ffffff90  ....h...........
 1060 f30f1efa 68030000 00f2e9b1 ffffff90  ....h...........
 1070 f30f1efa 68040000 00f2e9a1 ffffff90  ....h...........
 1080 f30f1efa 68050000 00f2e991 ffffff90  ....h...........
 1090 f30f1efa 68060000 00f2e981 ffffff90  ....h...........
 10a0 f30f1efa 68070000 00f2e971 ffffff90  ....h......q....
 10b0 f30f1efa 68080000 00f2e961 ffffff90  ....h......a....
Contents of section .plt.got:
 10c0 f30f1efa f2ff2505 2f00000f 1f440000  ......%./....D..
Contents of section .plt.sec:
 10d0 f30f1efa f2ff25ad 2e00000f 1f440000  ......%......D..
 10e0 f30f1efa f2ff25a5 2e00000f 1f440000  ......%......D..
 10f0 f30f1efa f2ff259d 2e00000f 1f440000  ......%......D..
 1100 f30f1efa f2ff2595 2e00000f 1f440000  ......%......D..
 1110 f30f1efa f2ff258d 2e00000f 1f440000  ......%......D..
 1120 f30f1efa f2ff2585 2e00000f 1f440000  ......%......D..
 1130 f30f1efa f2ff257d 2e00000f 1f440000  ......%}.....D..
 1140 f30f1efa f2ff2575 2e00000f 1f440000  ......%u.....D..
 1150 f30f1efa f2ff256d 2e00000f 1f440000  ......%m.....D..
Contents of section .text:
 1160 f30f1efa 4155bf08 00000041 5455e88d  ....AU.....ATU..
 1170 ffffffbf 08000000 4989c548 8d05462b  ........I..H..F+
 1180 00004989 4500e875 ffffffbf 08000000  ..I.E..u........
 1190 4989c448 8d05562b 00004989 0424e85d  I..H..V+..I..$.]
 11a0 ffffff4c 89ef4889 c5488d05 682b0000  ...L..H..H..h+..
 11b0 48894500 498b4500 ff10498b 45004c89  H.E.I.E...I.E.L.
 11c0 efff5008 498b4500 4c89efff 5010498b  ..P.I.E.L...P.I.
 11d0 04244c89 e7ff1049 8b04244c 89e7ff50  .$L....I..$L...P
 11e0 08498b04 244c89e7 ff501048 8b450048  .I..$L...P.H.E.H
 11f0 89efff10 488b4500 4889efff 5008488b  ....H.E.H...P.H.
 1200 45004889 efff5010 4c89efbe 08000000  E.H...P.L.......
 1210 e8fbfeff ff4c89e7 be080000 00e8eefe  .....L..........
 1220 ffff4889 efbe0800 0000e8e1 feffff5d  ..H............]
 1230 31c0415c 415dc366 0f1f8400 00000000  1.A\A].f........
 1240 f30f1efa 4883ec08 488d3d02 2f0000e8  ....H...H.=./...
 1250 fcfeffff 488b3d9d 2d000048 83c40848  ....H.=.-..H...H
 1260 8d15a22d 0000488d 35e42e00 00e97efe  ...-..H.5.....~.
 1270 ffff662e 0f1f8400 00000000 0f1f4000  ..f...........@.
 1280 f30f1efa 31ed4989 d15e4889 e24883e4  ....1.I..^H..H..
 1290 f050544c 8d052604 0000488d 0daf0300  .PTL..&...H.....
 12a0 00488d3d b8feffff ff15322d 0000f490  .H.=......2-....
 12b0 488d3d59 2d000048 8d05522d 00004839  H.=Y-..H..R-..H9
 12c0 f8741548 8b050e2d 00004885 c07409ff  .t.H...-..H..t..
 12d0 e00f1f80 00000000 c30f1f80 00000000  ................
 12e0 488d3d29 2d000048 8d35222d 00004829  H.=)-..H.5"-..H)
 12f0 fe4889f0 48c1ee3f 48c1f803 4801c648  .H..H..?H...H..H
 1300 d1fe7414 488b05e5 2c000048 85c07408  ..t.H...,..H..t.
 1310 ffe0660f 1f440000 c30f1f80 00000000  ..f..D..........
 1320 f30f1efa 803d252e 00000075 2b554883  .....=%....u+UH.
 1330 3d9a2c00 00004889 e5740c48 8b3dc62c  =.,...H..t.H.=.,
 1340 0000e879 fdffffe8 64ffffff c605fd2d  ...y....d......-
 1350 0000015d c30f1f00 c30f1f80 00000000  ...]............
 1360 f30f1efa e977ffff ff0f1f80 00000000  .....w..........
 1370 f30f1efa 89f0c366 0f1f8400 00000000  .......f........
 1380 f30f1efa 55ba1400 0000488d 35730c00  ....U.....H.5s..
 1390 00488d3d a82c0000 e883fdff ff488b05  .H.=.,.......H..
 13a0 9c2c0000 488d1595 2c000048 8b40e848  .,..H...,..H.@.H
 13b0 8bac02f0 00000048 85ed744f 807d3800  .......H..tO.}8.
 13c0 741e0fbe 7543488d 3d732c00 00e8fefc  t...uCH.=s,.....
 13d0 ffff5d48 89c7e905 fdffff0f 1f440000  ..]H.........D..
 13e0 4889efe8 48fdffff 488b4500 be0a0000  H...H...H.E.....
 13f0 00488d15 78ffffff 488b4030 4839d074  .H..x...H.@0H9.t
 1400 c54889ef ffd00fbe f0ebbbe8 30fdffff  .H..........0...
 1410 f30f1efa 55ba1000 0000488d 35f80b00  ....U.....H.5...
 1420 00488d3d 182c0000 e8f3fcff ff488b05  .H.=.,.......H..
 1430 0c2c0000 488d1505 2c000048 8b40e848  .,..H...,..H.@.H
 1440 8bac02f0 00000048 85ed744f 807d3800  .......H..tO.}8.
 1450 741e0fbe 7543488d 3de32b00 00e86efc  t...uCH.=.+...n.
 1460 ffff5d48 89c7e975 fcffff0f 1f440000  ..]H...u.....D..
 1470 4889efe8 b8fcffff 488b4500 be0a0000  H.......H.E.....
 1480 00488d15 e8feffff 488b4030 4839d074  .H......H.@0H9.t
 1490 c54889ef ffd00fbe f0ebbbe8 a0fcffff  .H..............
 14a0 f30f1efa 55ba1000 0000488d 35790b00  ....U.....H.5y..
 14b0 00488d3d 882b0000 e863fcff ff488b05  .H.=.+...c...H..
 14c0 7c2b0000 488d1575 2b000048 8b40e848  |+..H..u+..H.@.H
 14d0 8bac02f0 00000048 85ed744f 807d3800  .......H..tO.}8.
 14e0 741e0fbe 7543488d 3d532b00 00e8defb  t...uCH.=S+.....
 14f0 ffff5d48 89c7e9e5 fbffff0f 1f440000  ..]H.........D..
 1500 4889efe8 28fcffff 488b4500 be0a0000  H...(...H.E.....
 1510 00488d15 58feffff 488b4030 4839d074  .H..X...H.@0H9.t
 1520 c54889ef ffd00fbe f0ebbbe8 10fcffff  .H..............
 1530 f30f1efa 55ba1000 0000488d 35fa0a00  ....U.....H.5...
 1540 00488d3d f82a0000 e8d3fbff ff488b05  .H.=.*.......H..
 1550 ec2a0000 488d15e5 2a000048 8b40e848  .*..H...*..H.@.H
 1560 8bac02f0 00000048 85ed744f 807d3800  .......H..tO.}8.
 1570 741e0fbe 7543488d 3dc32a00 00e84efb  t...uCH.=.*...N.
 1580 ffff5d48 89c7e955 fbffff0f 1f440000  ..]H...U.....D..
 1590 4889efe8 98fbffff 488b4500 be0a0000  H.......H.E.....
 15a0 00488d15 c8fdffff 488b4030 4839d074  .H......H.@0H9.t
 15b0 c54889ef ffd00fbe f0ebbbe8 80fbffff  .H..............
 15c0 f30f1efa 55ba1400 0000488d 357b0a00  ....U.....H.5{..
 15d0 00488d3d 682a0000 e843fbff ff488b05  .H.=h*...C...H..
 15e0 5c2a0000 488d1555 2a000048 8b40e848  \*..H..U*..H.@.H
 15f0 8bac02f0 00000048 85ed744f 807d3800  .......H..tO.}8.
 1600 741e0fbe 7543488d 3d332a00 00e8befa  t...uCH.=3*.....
 1610 ffff5d48 89c7e9c5 faffff0f 1f440000  ..]H.........D..
 1620 4889efe8 08fbffff 488b4500 be0a0000  H.......H.E.....
 1630 00488d15 38fdffff 488b4030 4839d074  .H..8...H.@0H9.t
 1640 c54889ef ffd00fbe f0ebbbe8 f0faffff  .H..............
 1650 f30f1efa 41574c8d 3d432600 00415649  ....AWL.=C&..AVI
 1660 89d64155 4989f541 544189fc 55488d2d  ..AUI..ATA..UH.-
 1670 3c260000 534c29fd 4883ec08 e87ff9ff  <&..SL).H.......
 1680 ff48c1fd 03741f31 db0f1f80 00000000  .H...t.1........
 1690 4c89f24c 89ee4489 e741ff14 df4883c3  L..L..D..A...H..
 16a0 014839dd 75ea4883 c4085b5d 415c415d  .H9.u.H...[]A\A]
 16b0 415e415f c366662e 0f1f8400 00000000  A^A_.ff.........
 16c0 f30f1efa c3                          .....           
Contents of section .fini:
 16c8 f30f1efa 4883ec08 4883c408 c3        ....H...H....   
Contents of section .rodata:
 2000 01000200 44657269 76656432 2066756e  ....Derived2 fun
 2010 6374696f 6e322829 00426173 65206675  ction2().Base fu
 2020 6e637469 6f6e3128 29004261 73652066  nction1().Base f
 2030 756e6374 696f6e32 28290042 61736520  unction2().Base 
 2040 66756e63 74696f6e 33282900 44657269  function3().Deri
 2050 76656431 2066756e 6374696f 6e312829  ved1 function1()
 2060 00344261 73650000 38446572 69766564  .4Base..8Derived
 2070 31000000 00000000 38446572 69766564  1.......8Derived
 2080 3200                                 2.              
Contents of section .eh_frame_hdr:
 2084 011b033b 78000000 0e000000 9cefffff  ...;x...........
 2094 ac000000 3cf0ffff d4000000 4cf0ffff  ....<.......L...
 20a4 ec000000 dcf0ffff b8010000 bcf1ffff  ................
 20b4 e4010000 fcf1ffff 94000000 ecf2ffff  ................
 20c4 04010000 fcf2ffff 18010000 8cf3ffff  ................
 20d4 38010000 1cf4ffff 58010000 acf4ffff  8.......X.......
 20e4 78010000 3cf5ffff 98010000 ccf5ffff  x...<...........
 20f4 fc010000 3cf6ffff 44020000           ....<...D...    
Contents of section .eh_frame:
 2100 14000000 00000000 017a5200 01781001  .........zR..x..
 2110 1b0c0708 90010000 14000000 1c000000  ................
 2120 60f1ffff 2f000000 00440710 00000000  `.../....D......
 2130 24000000 34000000 e8eeffff a0000000  $...4...........
 2140 000e1046 0e184a0f 0b770880 003f1a3a  ...F..J..w...?.:
 2150 2a332422 00000000 14000000 5c000000  *3$"........\...
 2160 60efffff 10000000 00000000 00000000  `...............
 2170 14000000 74000000 58efffff 90000000  ....t...X.......
 2180 00000000 00000000 10000000 8c000000  ................
 2190 e0f1ffff 07000000 00000000 1c000000  ................
 21a0 a0000000 dcf1ffff 90000000 00450e10  .............E..
 21b0 8602024e 0a0e084d 0b000000 1c000000  ...N...M........
 21c0 c0000000 4cf2ffff 90000000 00450e10  ....L........E..
 21d0 8602024e 0a0e084d 0b000000 1c000000  ...N...M........
 21e0 e0000000 bcf2ffff 90000000 00450e10  .............E..
 21f0 8602024e 0a0e084d 0b000000 1c000000  ...N...M........
 2200 00010000 2cf3ffff 90000000 00450e10  ....,........E..
 2210 8602024e 0a0e084d 0b000000 1c000000  ...N...M........
 2220 20010000 9cf3ffff 90000000 00450e10   ............E..
 2230 8602024e 0a0e084d 0b000000 28000000  ...N...M....(...
 2240 40010000 1cefffff d7000000 00460e10  @............F..
 2250 8d02470e 188c0341 0e208604 02c20e18  ..G....A. ......
 2260 440e1042 0e080000 14000000 6c010000  D..B........l...
 2270 d0efffff 32000000 00480e10 570e0800  ....2....H..W...
 2280 44000000 84010000 c8f3ffff 65000000  D...........e...
 2290 00460e10 8f02490e 188e0345 0e208d04  .F....I....E. ..
 22a0 450e288c 05440e30 8606480e 38830747  E.(..D.0..H.8..G
 22b0 0e406e0e 38410e30 410e2842 0e20420e  .@n.8A.0A.(B. B.
 22c0 18420e10 420e0800 10000000 cc010000  .B..B...........
 22d0 f0f3ffff 05000000 00000000 00000000  ................
Contents of section .init_array:
 3ca0 60130000 00000000 40120000 00000000  `.......@.......
Contents of section .fini_array:
 3cb0 20130000 00000000                     .......        
Contents of section .data.rel.ro:
 3cb8 00000000 00000000 303d0000 00000000  ........0=......
 3cc8 10140000 00000000 a0140000 00000000  ................
 3cd8 30150000 00000000 00000000 00000000  0...............
 3ce8 403d0000 00000000 c0150000 00000000  @=..............
 3cf8 a0140000 00000000 30150000 00000000  ........0.......
 3d08 00000000 00000000 583d0000 00000000  ........X=......
 3d18 c0150000 00000000 80130000 00000000  ................
 3d28 30150000 00000000 00000000 00000000  0...............
 3d38 61200000 00000000 00000000 00000000  a ..............
 3d48 68200000 00000000 303d0000 00000000  h ......0=......
 3d58 00000000 00000000 78200000 00000000  ........x ......
 3d68 403d0000 00000000                    @=......        
Contents of section .dynamic:
 3d70 01000000 00000000 01000000 00000000  ................
 3d80 01000000 00000000 a8010000 00000000  ................
 3d90 0c000000 00000000 00100000 00000000  ................
 3da0 0d000000 00000000 c8160000 00000000  ................
 3db0 19000000 00000000 a03c0000 00000000  .........<......
 3dc0 1b000000 00000000 10000000 00000000  ................
 3dd0 1a000000 00000000 b03c0000 00000000  .........<......
 3de0 1c000000 00000000 08000000 00000000  ................
 3df0 f5feff6f 00000000 a0030000 00000000  ...o............
 3e00 05000000 00000000 b0050000 00000000  ................
 3e10 06000000 00000000 d0030000 00000000  ................
 3e20 0a000000 00000000 2d020000 00000000  ........-.......
 3e30 0b000000 00000000 18000000 00000000  ................
 3e40 15000000 00000000 00000000 00000000  ................
 3e50 03000000 00000000 703f0000 00000000  ........p?......
 3e60 02000000 00000000 d8000000 00000000  ................
 3e70 14000000 00000000 07000000 00000000  ................
 3e80 17000000 00000000 700b0000 00000000  ........p.......
 3e90 07000000 00000000 88080000 00000000  ................
 3ea0 08000000 00000000 e8020000 00000000  ................
 3eb0 09000000 00000000 18000000 00000000  ................
 3ec0 1e000000 00000000 08000000 00000000  ................
 3ed0 fbffff6f 00000000 01000008 00000000  ...o............
 3ee0 feffff6f 00000000 08080000 00000000  ...o............
 3ef0 ffffff6f 00000000 02000000 00000000  ...o............
 3f00 f0ffff6f 00000000 de070000 00000000  ...o............
 3f10 f9ffff6f 00000000 15000000 00000000  ...o............
 3f20 00000000 00000000 00000000 00000000  ................
 3f30 00000000 00000000 00000000 00000000  ................
 3f40 00000000 00000000 00000000 00000000  ................
 3f50 00000000 00000000 00000000 00000000  ................
 3f60 00000000 00000000 00000000 00000000  ................
Contents of section .got:
 3f70 703d0000 00000000 00000000 00000000  p=..............
 3f80 00000000 00000000 30100000 00000000  ........0.......
 3f90 40100000 00000000 50100000 00000000  @.......P.......
 3fa0 60100000 00000000 70100000 00000000  `.......p.......
 3fb0 80100000 00000000 90100000 00000000  ................
 3fc0 a0100000 00000000 b0100000 00000000  ................
 3fd0 00000000 00000000 00000000 00000000  ................
 3fe0 00000000 00000000 00000000 00000000  ................
 3ff0 00000000 00000000 00000000 00000000  ................
Contents of section .data:
 4000 00000000 00000000 08400000 00000000  .........@......
Contents of section .comment:
 0000 4743433a 20285562 756e7475 20392e34  GCC: (Ubuntu 9.4
 0010 2e302d31 7562756e 7475317e 32302e30  .0-1ubuntu1~20.0
 0020 342e3229 20392e34 2e3000             4.2) 9.4.0.     

Disassembly of section .init:

0000000000001000 <_init>:
    1000:	f3 0f 1e fa          	endbr64 
    1004:	48 83 ec 08          	sub    $0x8,%rsp
    1008:	48 8b 05 d9 2f 00 00 	mov    0x2fd9(%rip),%rax        # 3fe8 <__gmon_start__>
    100f:	48 85 c0             	test   %rax,%rax
    1012:	74 02                	je     1016 <_init+0x16>
    1014:	ff d0                	callq  *%rax
    1016:	48 83 c4 08          	add    $0x8,%rsp
    101a:	c3                   	retq   

Disassembly of section .plt:

0000000000001020 <.plt>:
    1020:	ff 35 52 2f 00 00    	pushq  0x2f52(%rip)        # 3f78 <_GLOBAL_OFFSET_TABLE_+0x8>
    1026:	f2 ff 25 53 2f 00 00 	bnd jmpq *0x2f53(%rip)        # 3f80 <_GLOBAL_OFFSET_TABLE_+0x10>
    102d:	0f 1f 00             	nopl   (%rax)
    1030:	f3 0f 1e fa          	endbr64 
    1034:	68 00 00 00 00       	pushq  $0x0
    1039:	f2 e9 e1 ff ff ff    	bnd jmpq 1020 <.plt>
    103f:	90                   	nop
    1040:	f3 0f 1e fa          	endbr64 
    1044:	68 01 00 00 00       	pushq  $0x1
    1049:	f2 e9 d1 ff ff ff    	bnd jmpq 1020 <.plt>
    104f:	90                   	nop
    1050:	f3 0f 1e fa          	endbr64 
    1054:	68 02 00 00 00       	pushq  $0x2
    1059:	f2 e9 c1 ff ff ff    	bnd jmpq 1020 <.plt>
    105f:	90                   	nop
    1060:	f3 0f 1e fa          	endbr64 
    1064:	68 03 00 00 00       	pushq  $0x3
    1069:	f2 e9 b1 ff ff ff    	bnd jmpq 1020 <.plt>
    106f:	90                   	nop
    1070:	f3 0f 1e fa          	endbr64 
    1074:	68 04 00 00 00       	pushq  $0x4
    1079:	f2 e9 a1 ff ff ff    	bnd jmpq 1020 <.plt>
    107f:	90                   	nop
    1080:	f3 0f 1e fa          	endbr64 
    1084:	68 05 00 00 00       	pushq  $0x5
    1089:	f2 e9 91 ff ff ff    	bnd jmpq 1020 <.plt>
    108f:	90                   	nop
    1090:	f3 0f 1e fa          	endbr64 
    1094:	68 06 00 00 00       	pushq  $0x6
    1099:	f2 e9 81 ff ff ff    	bnd jmpq 1020 <.plt>
    109f:	90                   	nop
    10a0:	f3 0f 1e fa          	endbr64 
    10a4:	68 07 00 00 00       	pushq  $0x7
    10a9:	f2 e9 71 ff ff ff    	bnd jmpq 1020 <.plt>
    10af:	90                   	nop
    10b0:	f3 0f 1e fa          	endbr64 
    10b4:	68 08 00 00 00       	pushq  $0x8
    10b9:	f2 e9 61 ff ff ff    	bnd jmpq 1020 <.plt>
    10bf:	90                   	nop

Disassembly of section .plt.got:

00000000000010c0 <__cxa_finalize@plt>:
    10c0:	f3 0f 1e fa          	endbr64 
    10c4:	f2 ff 25 05 2f 00 00 	bnd jmpq *0x2f05(%rip)        # 3fd0 <__cxa_finalize@GLIBC_2.2.5>
    10cb:	0f 1f 44 00 00       	nopl   0x0(%rax,%rax,1)

Disassembly of section .plt.sec:

00000000000010d0 <std::ostream::put(char)@plt>:
    10d0:	f3 0f 1e fa          	endbr64 
    10d4:	f2 ff 25 ad 2e 00 00 	bnd jmpq *0x2ead(%rip)        # 3f88 <std::ostream::put(char)@GLIBCXX_3.4>
    10db:	0f 1f 44 00 00       	nopl   0x0(%rax,%rax,1)

00000000000010e0 <std::ostream::flush()@plt>:
    10e0:	f3 0f 1e fa          	endbr64 
    10e4:	f2 ff 25 a5 2e 00 00 	bnd jmpq *0x2ea5(%rip)        # 3f90 <std::ostream::flush()@GLIBCXX_3.4>
    10eb:	0f 1f 44 00 00       	nopl   0x0(%rax,%rax,1)

00000000000010f0 <__cxa_atexit@plt>:
    10f0:	f3 0f 1e fa          	endbr64 
    10f4:	f2 ff 25 9d 2e 00 00 	bnd jmpq *0x2e9d(%rip)        # 3f98 <__cxa_atexit@GLIBC_2.2.5>
    10fb:	0f 1f 44 00 00       	nopl   0x0(%rax,%rax,1)

0000000000001100 <operator new(unsigned long)@plt>:
    1100:	f3 0f 1e fa          	endbr64 
    1104:	f2 ff 25 95 2e 00 00 	bnd jmpq *0x2e95(%rip)        # 3fa0 <operator new(unsigned long)@GLIBCXX_3.4>
    110b:	0f 1f 44 00 00       	nopl   0x0(%rax,%rax,1)

0000000000001110 <operator delete(void*, unsigned long)@plt>:
    1110:	f3 0f 1e fa          	endbr64 
    1114:	f2 ff 25 8d 2e 00 00 	bnd jmpq *0x2e8d(%rip)        # 3fa8 <operator delete(void*, unsigned long)@CXXABI_1.3.9>
    111b:	0f 1f 44 00 00       	nopl   0x0(%rax,%rax,1)

0000000000001120 <std::basic_ostream<char, std::char_traits<char> >& std::__ostream_insert<char, std::char_traits<char> >(std::basic_ostream<char, std::char_traits<char> >&, char const*, long)@plt>:
    1120:	f3 0f 1e fa          	endbr64 
    1124:	f2 ff 25 85 2e 00 00 	bnd jmpq *0x2e85(%rip)        # 3fb0 <std::basic_ostream<char, std::char_traits<char> >& std::__ostream_insert<char, std::char_traits<char> >(std::basic_ostream<char, std::char_traits<char> >&, char const*, long)@GLIBCXX_3.4.9>
    112b:	0f 1f 44 00 00       	nopl   0x0(%rax,%rax,1)

0000000000001130 <std::ctype<char>::_M_widen_init() const@plt>:
    1130:	f3 0f 1e fa          	endbr64 
    1134:	f2 ff 25 7d 2e 00 00 	bnd jmpq *0x2e7d(%rip)        # 3fb8 <std::ctype<char>::_M_widen_init() const@GLIBCXX_3.4.11>
    113b:	0f 1f 44 00 00       	nopl   0x0(%rax,%rax,1)

0000000000001140 <std::__throw_bad_cast()@plt>:
    1140:	f3 0f 1e fa          	endbr64 
    1144:	f2 ff 25 75 2e 00 00 	bnd jmpq *0x2e75(%rip)        # 3fc0 <std::__throw_bad_cast()@GLIBCXX_3.4>
    114b:	0f 1f 44 00 00       	nopl   0x0(%rax,%rax,1)

0000000000001150 <std::ios_base::Init::Init()@plt>:
    1150:	f3 0f 1e fa          	endbr64 
    1154:	f2 ff 25 6d 2e 00 00 	bnd jmpq *0x2e6d(%rip)        # 3fc8 <std::ios_base::Init::Init()@GLIBCXX_3.4>
    115b:	0f 1f 44 00 00       	nopl   0x0(%rax,%rax,1)

Disassembly of section .text:

0000000000001160 <main>:
    1160:	f3 0f 1e fa          	endbr64 
    1164:	41 55                	push   %r13
    1166:	bf 08 00 00 00       	mov    $0x8,%edi
    116b:	41 54                	push   %r12
    116d:	55                   	push   %rbp
    116e:	e8 8d ff ff ff       	callq  1100 <operator new(unsigned long)@plt>
    1173:	bf 08 00 00 00       	mov    $0x8,%edi
    1178:	49 89 c5             	mov    %rax,%r13
    117b:	48 8d 05 46 2b 00 00 	lea    0x2b46(%rip),%rax        # 3cc8 <vtable for Base+0x10>
    1182:	49 89 45 00          	mov    %rax,0x0(%r13)
    1186:	e8 75 ff ff ff       	callq  1100 <operator new(unsigned long)@plt>
    118b:	bf 08 00 00 00       	mov    $0x8,%edi
    1190:	49 89 c4             	mov    %rax,%r12
    1193:	48 8d 05 56 2b 00 00 	lea    0x2b56(%rip),%rax        # 3cf0 <vtable for Derived1+0x10>
    119a:	49 89 04 24          	mov    %rax,(%r12)
    119e:	e8 5d ff ff ff       	callq  1100 <operator new(unsigned long)@plt>
    11a3:	4c 89 ef             	mov    %r13,%rdi
    11a6:	48 89 c5             	mov    %rax,%rbp
    11a9:	48 8d 05 68 2b 00 00 	lea    0x2b68(%rip),%rax        # 3d18 <vtable for Derived2+0x10>
    11b0:	48 89 45 00          	mov    %rax,0x0(%rbp)
    11b4:	49 8b 45 00          	mov    0x0(%r13),%rax
    11b8:	ff 10                	callq  *(%rax)
    11ba:	49 8b 45 00          	mov    0x0(%r13),%rax
    11be:	4c 89 ef             	mov    %r13,%rdi
    11c1:	ff 50 08             	callq  *0x8(%rax)
    11c4:	49 8b 45 00          	mov    0x0(%r13),%rax
    11c8:	4c 89 ef             	mov    %r13,%rdi
    11cb:	ff 50 10             	callq  *0x10(%rax)
    11ce:	49 8b 04 24          	mov    (%r12),%rax
    11d2:	4c 89 e7             	mov    %r12,%rdi
    11d5:	ff 10                	callq  *(%rax)
    11d7:	49 8b 04 24          	mov    (%r12),%rax
    11db:	4c 89 e7             	mov    %r12,%rdi
    11de:	ff 50 08             	callq  *0x8(%rax)
    11e1:	49 8b 04 24          	mov    (%r12),%rax
    11e5:	4c 89 e7             	mov    %r12,%rdi
    11e8:	ff 50 10             	callq  *0x10(%rax)
    11eb:	48 8b 45 00          	mov    0x0(%rbp),%rax
    11ef:	48 89 ef             	mov    %rbp,%rdi
    11f2:	ff 10                	callq  *(%rax)
    11f4:	48 8b 45 00          	mov    0x0(%rbp),%rax
    11f8:	48 89 ef             	mov    %rbp,%rdi
    11fb:	ff 50 08             	callq  *0x8(%rax)
    11fe:	48 8b 45 00          	mov    0x0(%rbp),%rax
    1202:	48 89 ef             	mov    %rbp,%rdi
    1205:	ff 50 10             	callq  *0x10(%rax)
    1208:	4c 89 ef             	mov    %r13,%rdi
    120b:	be 08 00 00 00       	mov    $0x8,%esi
    1210:	e8 fb fe ff ff       	callq  1110 <operator delete(void*, unsigned long)@plt>
    1215:	4c 89 e7             	mov    %r12,%rdi
    1218:	be 08 00 00 00       	mov    $0x8,%esi
    121d:	e8 ee fe ff ff       	callq  1110 <operator delete(void*, unsigned long)@plt>
    1222:	48 89 ef             	mov    %rbp,%rdi
    1225:	be 08 00 00 00       	mov    $0x8,%esi
    122a:	e8 e1 fe ff ff       	callq  1110 <operator delete(void*, unsigned long)@plt>
    122f:	5d                   	pop    %rbp
    1230:	31 c0                	xor    %eax,%eax
    1232:	41 5c                	pop    %r12
    1234:	41 5d                	pop    %r13
    1236:	c3                   	retq   
    1237:	66 0f 1f 84 00 00 00 	nopw   0x0(%rax,%rax,1)
    123e:	00 00 

0000000000001240 <_GLOBAL__sub_I_main>:
    1240:	f3 0f 1e fa          	endbr64 
    1244:	48 83 ec 08          	sub    $0x8,%rsp
    1248:	48 8d 3d 02 2f 00 00 	lea    0x2f02(%rip),%rdi        # 4151 <std::__ioinit>
    124f:	e8 fc fe ff ff       	callq  1150 <std::ios_base::Init::Init()@plt>
    1254:	48 8b 3d 9d 2d 00 00 	mov    0x2d9d(%rip),%rdi        # 3ff8 <std::ios_base::Init::~Init()@GLIBCXX_3.4>
    125b:	48 83 c4 08          	add    $0x8,%rsp
    125f:	48 8d 15 a2 2d 00 00 	lea    0x2da2(%rip),%rdx        # 4008 <__dso_handle>
    1266:	48 8d 35 e4 2e 00 00 	lea    0x2ee4(%rip),%rsi        # 4151 <std::__ioinit>
    126d:	e9 7e fe ff ff       	jmpq   10f0 <__cxa_atexit@plt>
    1272:	66 2e 0f 1f 84 00 00 	nopw   %cs:0x0(%rax,%rax,1)
    1279:	00 00 00 
    127c:	0f 1f 40 00          	nopl   0x0(%rax)

0000000000001280 <_start>:
    1280:	f3 0f 1e fa          	endbr64 
    1284:	31 ed                	xor    %ebp,%ebp
    1286:	49 89 d1             	mov    %rdx,%r9
    1289:	5e                   	pop    %rsi
    128a:	48 89 e2             	mov    %rsp,%rdx
    128d:	48 83 e4 f0          	and    $0xfffffffffffffff0,%rsp
    1291:	50                   	push   %rax
    1292:	54                   	push   %rsp
    1293:	4c 8d 05 26 04 00 00 	lea    0x426(%rip),%r8        # 16c0 <__libc_csu_fini>
    129a:	48 8d 0d af 03 00 00 	lea    0x3af(%rip),%rcx        # 1650 <__libc_csu_init>
    12a1:	48 8d 3d b8 fe ff ff 	lea    -0x148(%rip),%rdi        # 1160 <main>
    12a8:	ff 15 32 2d 00 00    	callq  *0x2d32(%rip)        # 3fe0 <__libc_start_main@GLIBC_2.2.5>
    12ae:	f4                   	hlt    
    12af:	90                   	nop

00000000000012b0 <deregister_tm_clones>:
    12b0:	48 8d 3d 59 2d 00 00 	lea    0x2d59(%rip),%rdi        # 4010 <__TMC_END__>
    12b7:	48 8d 05 52 2d 00 00 	lea    0x2d52(%rip),%rax        # 4010 <__TMC_END__>
    12be:	48 39 f8             	cmp    %rdi,%rax
    12c1:	74 15                	je     12d8 <deregister_tm_clones+0x28>
    12c3:	48 8b 05 0e 2d 00 00 	mov    0x2d0e(%rip),%rax        # 3fd8 <_ITM_deregisterTMCloneTable>
    12ca:	48 85 c0             	test   %rax,%rax
    12cd:	74 09                	je     12d8 <deregister_tm_clones+0x28>
    12cf:	ff e0                	jmpq   *%rax
    12d1:	0f 1f 80 00 00 00 00 	nopl   0x0(%rax)
    12d8:	c3                   	retq   
    12d9:	0f 1f 80 00 00 00 00 	nopl   0x0(%rax)

00000000000012e0 <register_tm_clones>:
    12e0:	48 8d 3d 29 2d 00 00 	lea    0x2d29(%rip),%rdi        # 4010 <__TMC_END__>
    12e7:	48 8d 35 22 2d 00 00 	lea    0x2d22(%rip),%rsi        # 4010 <__TMC_END__>
    12ee:	48 29 fe             	sub    %rdi,%rsi
    12f1:	48 89 f0             	mov    %rsi,%rax
    12f4:	48 c1 ee 3f          	shr    $0x3f,%rsi
    12f8:	48 c1 f8 03          	sar    $0x3,%rax
    12fc:	48 01 c6             	add    %rax,%rsi
    12ff:	48 d1 fe             	sar    %rsi
    1302:	74 14                	je     1318 <register_tm_clones+0x38>
    1304:	48 8b 05 e5 2c 00 00 	mov    0x2ce5(%rip),%rax        # 3ff0 <_ITM_registerTMCloneTable>
    130b:	48 85 c0             	test   %rax,%rax
    130e:	74 08                	je     1318 <register_tm_clones+0x38>
    1310:	ff e0                	jmpq   *%rax
    1312:	66 0f 1f 44 00 00    	nopw   0x0(%rax,%rax,1)
    1318:	c3                   	retq   
    1319:	0f 1f 80 00 00 00 00 	nopl   0x0(%rax)

0000000000001320 <__do_global_dtors_aux>:
    1320:	f3 0f 1e fa          	endbr64 
    1324:	80 3d 25 2e 00 00 00 	cmpb   $0x0,0x2e25(%rip)        # 4150 <completed.8061>
    132b:	75 2b                	jne    1358 <__do_global_dtors_aux+0x38>
    132d:	55                   	push   %rbp
    132e:	48 83 3d 9a 2c 00 00 	cmpq   $0x0,0x2c9a(%rip)        # 3fd0 <__cxa_finalize@GLIBC_2.2.5>
    1335:	00 
    1336:	48 89 e5             	mov    %rsp,%rbp
    1339:	74 0c                	je     1347 <__do_global_dtors_aux+0x27>
    133b:	48 8b 3d c6 2c 00 00 	mov    0x2cc6(%rip),%rdi        # 4008 <__dso_handle>
    1342:	e8 79 fd ff ff       	callq  10c0 <__cxa_finalize@plt>
    1347:	e8 64 ff ff ff       	callq  12b0 <deregister_tm_clones>
    134c:	c6 05 fd 2d 00 00 01 	movb   $0x1,0x2dfd(%rip)        # 4150 <completed.8061>
    1353:	5d                   	pop    %rbp
    1354:	c3                   	retq   
    1355:	0f 1f 00             	nopl   (%rax)
    1358:	c3                   	retq   
    1359:	0f 1f 80 00 00 00 00 	nopl   0x0(%rax)

0000000000001360 <frame_dummy>:
    1360:	f3 0f 1e fa          	endbr64 
    1364:	e9 77 ff ff ff       	jmpq   12e0 <register_tm_clones>
    1369:	0f 1f 80 00 00 00 00 	nopl   0x0(%rax)

0000000000001370 <std::ctype<char>::do_widen(char) const>:
    1370:	f3 0f 1e fa          	endbr64 
    1374:	89 f0                	mov    %esi,%eax
    1376:	c3                   	retq   
    1377:	66 0f 1f 84 00 00 00 	nopw   0x0(%rax,%rax,1)
    137e:	00 00 

0000000000001380 <Derived2::function2()>:
    1380:	f3 0f 1e fa          	endbr64 
    1384:	55                   	push   %rbp
    1385:	ba 14 00 00 00       	mov    $0x14,%edx
    138a:	48 8d 35 73 0c 00 00 	lea    0xc73(%rip),%rsi        # 2004 <_IO_stdin_used+0x4>
    1391:	48 8d 3d a8 2c 00 00 	lea    0x2ca8(%rip),%rdi        # 4040 <std::cout@@GLIBCXX_3.4>
    1398:	e8 83 fd ff ff       	callq  1120 <std::basic_ostream<char, std::char_traits<char> >& std::__ostream_insert<char, std::char_traits<char> >(std::basic_ostream<char, std::char_traits<char> >&, char const*, long)@plt>
    139d:	48 8b 05 9c 2c 00 00 	mov    0x2c9c(%rip),%rax        # 4040 <std::cout@@GLIBCXX_3.4>
    13a4:	48 8d 15 95 2c 00 00 	lea    0x2c95(%rip),%rdx        # 4040 <std::cout@@GLIBCXX_3.4>
    13ab:	48 8b 40 e8          	mov    -0x18(%rax),%rax
    13af:	48 8b ac 02 f0 00 00 	mov    0xf0(%rdx,%rax,1),%rbp
    13b6:	00 
    13b7:	48 85 ed             	test   %rbp,%rbp
    13ba:	74 4f                	je     140b <Derived2::function2()+0x8b>
    13bc:	80 7d 38 00          	cmpb   $0x0,0x38(%rbp)
    13c0:	74 1e                	je     13e0 <Derived2::function2()+0x60>
    13c2:	0f be 75 43          	movsbl 0x43(%rbp),%esi
    13c6:	48 8d 3d 73 2c 00 00 	lea    0x2c73(%rip),%rdi        # 4040 <std::cout@@GLIBCXX_3.4>
    13cd:	e8 fe fc ff ff       	callq  10d0 <std::ostream::put(char)@plt>
    13d2:	5d                   	pop    %rbp
    13d3:	48 89 c7             	mov    %rax,%rdi
    13d6:	e9 05 fd ff ff       	jmpq   10e0 <std::ostream::flush()@plt>
    13db:	0f 1f 44 00 00       	nopl   0x0(%rax,%rax,1)
    13e0:	48 89 ef             	mov    %rbp,%rdi
    13e3:	e8 48 fd ff ff       	callq  1130 <std::ctype<char>::_M_widen_init() const@plt>
    13e8:	48 8b 45 00          	mov    0x0(%rbp),%rax
    13ec:	be 0a 00 00 00       	mov    $0xa,%esi
    13f1:	48 8d 15 78 ff ff ff 	lea    -0x88(%rip),%rdx        # 1370 <std::ctype<char>::do_widen(char) const>
    13f8:	48 8b 40 30          	mov    0x30(%rax),%rax
    13fc:	48 39 d0             	cmp    %rdx,%rax
    13ff:	74 c5                	je     13c6 <Derived2::function2()+0x46>
    1401:	48 89 ef             	mov    %rbp,%rdi
    1404:	ff d0                	callq  *%rax
    1406:	0f be f0             	movsbl %al,%esi
    1409:	eb bb                	jmp    13c6 <Derived2::function2()+0x46>
    140b:	e8 30 fd ff ff       	callq  1140 <std::__throw_bad_cast()@plt>

0000000000001410 <Base::function1()>:
    1410:	f3 0f 1e fa          	endbr64 
    1414:	55                   	push   %rbp
    1415:	ba 10 00 00 00       	mov    $0x10,%edx
    141a:	48 8d 35 f8 0b 00 00 	lea    0xbf8(%rip),%rsi        # 2019 <_IO_stdin_used+0x19>
    1421:	48 8d 3d 18 2c 00 00 	lea    0x2c18(%rip),%rdi        # 4040 <std::cout@@GLIBCXX_3.4>
    1428:	e8 f3 fc ff ff       	callq  1120 <std::basic_ostream<char, std::char_traits<char> >& std::__ostream_insert<char, std::char_traits<char> >(std::basic_ostream<char, std::char_traits<char> >&, char const*, long)@plt>
    142d:	48 8b 05 0c 2c 00 00 	mov    0x2c0c(%rip),%rax        # 4040 <std::cout@@GLIBCXX_3.4>
    1434:	48 8d 15 05 2c 00 00 	lea    0x2c05(%rip),%rdx        # 4040 <std::cout@@GLIBCXX_3.4>
    143b:	48 8b 40 e8          	mov    -0x18(%rax),%rax
    143f:	48 8b ac 02 f0 00 00 	mov    0xf0(%rdx,%rax,1),%rbp
    1446:	00 
    1447:	48 85 ed             	test   %rbp,%rbp
    144a:	74 4f                	je     149b <Base::function1()+0x8b>
    144c:	80 7d 38 00          	cmpb   $0x0,0x38(%rbp)
    1450:	74 1e                	je     1470 <Base::function1()+0x60>
    1452:	0f be 75 43          	movsbl 0x43(%rbp),%esi
    1456:	48 8d 3d e3 2b 00 00 	lea    0x2be3(%rip),%rdi        # 4040 <std::cout@@GLIBCXX_3.4>
    145d:	e8 6e fc ff ff       	callq  10d0 <std::ostream::put(char)@plt>
    1462:	5d                   	pop    %rbp
    1463:	48 89 c7             	mov    %rax,%rdi
    1466:	e9 75 fc ff ff       	jmpq   10e0 <std::ostream::flush()@plt>
    146b:	0f 1f 44 00 00       	nopl   0x0(%rax,%rax,1)
    1470:	48 89 ef             	mov    %rbp,%rdi
    1473:	e8 b8 fc ff ff       	callq  1130 <std::ctype<char>::_M_widen_init() const@plt>
    1478:	48 8b 45 00          	mov    0x0(%rbp),%rax
    147c:	be 0a 00 00 00       	mov    $0xa,%esi
    1481:	48 8d 15 e8 fe ff ff 	lea    -0x118(%rip),%rdx        # 1370 <std::ctype<char>::do_widen(char) const>
    1488:	48 8b 40 30          	mov    0x30(%rax),%rax
    148c:	48 39 d0             	cmp    %rdx,%rax
    148f:	74 c5                	je     1456 <Base::function1()+0x46>
    1491:	48 89 ef             	mov    %rbp,%rdi
    1494:	ff d0                	callq  *%rax
    1496:	0f be f0             	movsbl %al,%esi
    1499:	eb bb                	jmp    1456 <Base::function1()+0x46>
    149b:	e8 a0 fc ff ff       	callq  1140 <std::__throw_bad_cast()@plt>

00000000000014a0 <Base::function2()>:
    14a0:	f3 0f 1e fa          	endbr64 
    14a4:	55                   	push   %rbp
    14a5:	ba 10 00 00 00       	mov    $0x10,%edx
    14aa:	48 8d 35 79 0b 00 00 	lea    0xb79(%rip),%rsi        # 202a <_IO_stdin_used+0x2a>
    14b1:	48 8d 3d 88 2b 00 00 	lea    0x2b88(%rip),%rdi        # 4040 <std::cout@@GLIBCXX_3.4>
    14b8:	e8 63 fc ff ff       	callq  1120 <std::basic_ostream<char, std::char_traits<char> >& std::__ostream_insert<char, std::char_traits<char> >(std::basic_ostream<char, std::char_traits<char> >&, char const*, long)@plt>
    14bd:	48 8b 05 7c 2b 00 00 	mov    0x2b7c(%rip),%rax        # 4040 <std::cout@@GLIBCXX_3.4>
    14c4:	48 8d 15 75 2b 00 00 	lea    0x2b75(%rip),%rdx        # 4040 <std::cout@@GLIBCXX_3.4>
    14cb:	48 8b 40 e8          	mov    -0x18(%rax),%rax
    14cf:	48 8b ac 02 f0 00 00 	mov    0xf0(%rdx,%rax,1),%rbp
    14d6:	00 
    14d7:	48 85 ed             	test   %rbp,%rbp
    14da:	74 4f                	je     152b <Base::function2()+0x8b>
    14dc:	80 7d 38 00          	cmpb   $0x0,0x38(%rbp)
    14e0:	74 1e                	je     1500 <Base::function2()+0x60>
    14e2:	0f be 75 43          	movsbl 0x43(%rbp),%esi
    14e6:	48 8d 3d 53 2b 00 00 	lea    0x2b53(%rip),%rdi        # 4040 <std::cout@@GLIBCXX_3.4>
    14ed:	e8 de fb ff ff       	callq  10d0 <std::ostream::put(char)@plt>
    14f2:	5d                   	pop    %rbp
    14f3:	48 89 c7             	mov    %rax,%rdi
    14f6:	e9 e5 fb ff ff       	jmpq   10e0 <std::ostream::flush()@plt>
    14fb:	0f 1f 44 00 00       	nopl   0x0(%rax,%rax,1)
    1500:	48 89 ef             	mov    %rbp,%rdi
    1503:	e8 28 fc ff ff       	callq  1130 <std::ctype<char>::_M_widen_init() const@plt>
    1508:	48 8b 45 00          	mov    0x0(%rbp),%rax
    150c:	be 0a 00 00 00       	mov    $0xa,%esi
    1511:	48 8d 15 58 fe ff ff 	lea    -0x1a8(%rip),%rdx        # 1370 <std::ctype<char>::do_widen(char) const>
    1518:	48 8b 40 30          	mov    0x30(%rax),%rax
    151c:	48 39 d0             	cmp    %rdx,%rax
    151f:	74 c5                	je     14e6 <Base::function2()+0x46>
    1521:	48 89 ef             	mov    %rbp,%rdi
    1524:	ff d0                	callq  *%rax
    1526:	0f be f0             	movsbl %al,%esi
    1529:	eb bb                	jmp    14e6 <Base::function2()+0x46>
    152b:	e8 10 fc ff ff       	callq  1140 <std::__throw_bad_cast()@plt>

0000000000001530 <Base::function3()>:
    1530:	f3 0f 1e fa          	endbr64 
    1534:	55                   	push   %rbp
    1535:	ba 10 00 00 00       	mov    $0x10,%edx
    153a:	48 8d 35 fa 0a 00 00 	lea    0xafa(%rip),%rsi        # 203b <_IO_stdin_used+0x3b>
    1541:	48 8d 3d f8 2a 00 00 	lea    0x2af8(%rip),%rdi        # 4040 <std::cout@@GLIBCXX_3.4>
    1548:	e8 d3 fb ff ff       	callq  1120 <std::basic_ostream<char, std::char_traits<char> >& std::__ostream_insert<char, std::char_traits<char> >(std::basic_ostream<char, std::char_traits<char> >&, char const*, long)@plt>
    154d:	48 8b 05 ec 2a 00 00 	mov    0x2aec(%rip),%rax        # 4040 <std::cout@@GLIBCXX_3.4>
    1554:	48 8d 15 e5 2a 00 00 	lea    0x2ae5(%rip),%rdx        # 4040 <std::cout@@GLIBCXX_3.4>
    155b:	48 8b 40 e8          	mov    -0x18(%rax),%rax
    155f:	48 8b ac 02 f0 00 00 	mov    0xf0(%rdx,%rax,1),%rbp
    1566:	00 
    1567:	48 85 ed             	test   %rbp,%rbp
    156a:	74 4f                	je     15bb <Base::function3()+0x8b>
    156c:	80 7d 38 00          	cmpb   $0x0,0x38(%rbp)
    1570:	74 1e                	je     1590 <Base::function3()+0x60>
    1572:	0f be 75 43          	movsbl 0x43(%rbp),%esi
    1576:	48 8d 3d c3 2a 00 00 	lea    0x2ac3(%rip),%rdi        # 4040 <std::cout@@GLIBCXX_3.4>
    157d:	e8 4e fb ff ff       	callq  10d0 <std::ostream::put(char)@plt>
    1582:	5d                   	pop    %rbp
    1583:	48 89 c7             	mov    %rax,%rdi
    1586:	e9 55 fb ff ff       	jmpq   10e0 <std::ostream::flush()@plt>
    158b:	0f 1f 44 00 00       	nopl   0x0(%rax,%rax,1)
    1590:	48 89 ef             	mov    %rbp,%rdi
    1593:	e8 98 fb ff ff       	callq  1130 <std::ctype<char>::_M_widen_init() const@plt>
    1598:	48 8b 45 00          	mov    0x0(%rbp),%rax
    159c:	be 0a 00 00 00       	mov    $0xa,%esi
    15a1:	48 8d 15 c8 fd ff ff 	lea    -0x238(%rip),%rdx        # 1370 <std::ctype<char>::do_widen(char) const>
    15a8:	48 8b 40 30          	mov    0x30(%rax),%rax
    15ac:	48 39 d0             	cmp    %rdx,%rax
    15af:	74 c5                	je     1576 <Base::function3()+0x46>
    15b1:	48 89 ef             	mov    %rbp,%rdi
    15b4:	ff d0                	callq  *%rax
    15b6:	0f be f0             	movsbl %al,%esi
    15b9:	eb bb                	jmp    1576 <Base::function3()+0x46>
    15bb:	e8 80 fb ff ff       	callq  1140 <std::__throw_bad_cast()@plt>

00000000000015c0 <Derived1::function1()>:
    15c0:	f3 0f 1e fa          	endbr64 
    15c4:	55                   	push   %rbp
    15c5:	ba 14 00 00 00       	mov    $0x14,%edx
    15ca:	48 8d 35 7b 0a 00 00 	lea    0xa7b(%rip),%rsi        # 204c <_IO_stdin_used+0x4c>
    15d1:	48 8d 3d 68 2a 00 00 	lea    0x2a68(%rip),%rdi        # 4040 <std::cout@@GLIBCXX_3.4>
    15d8:	e8 43 fb ff ff       	callq  1120 <std::basic_ostream<char, std::char_traits<char> >& std::__ostream_insert<char, std::char_traits<char> >(std::basic_ostream<char, std::char_traits<char> >&, char const*, long)@plt>
    15dd:	48 8b 05 5c 2a 00 00 	mov    0x2a5c(%rip),%rax        # 4040 <std::cout@@GLIBCXX_3.4>
    15e4:	48 8d 15 55 2a 00 00 	lea    0x2a55(%rip),%rdx        # 4040 <std::cout@@GLIBCXX_3.4>
    15eb:	48 8b 40 e8          	mov    -0x18(%rax),%rax
    15ef:	48 8b ac 02 f0 00 00 	mov    0xf0(%rdx,%rax,1),%rbp
    15f6:	00 
    15f7:	48 85 ed             	test   %rbp,%rbp
    15fa:	74 4f                	je     164b <Derived1::function1()+0x8b>
    15fc:	80 7d 38 00          	cmpb   $0x0,0x38(%rbp)
    1600:	74 1e                	je     1620 <Derived1::function1()+0x60>
    1602:	0f be 75 43          	movsbl 0x43(%rbp),%esi
    1606:	48 8d 3d 33 2a 00 00 	lea    0x2a33(%rip),%rdi        # 4040 <std::cout@@GLIBCXX_3.4>
    160d:	e8 be fa ff ff       	callq  10d0 <std::ostream::put(char)@plt>
    1612:	5d                   	pop    %rbp
    1613:	48 89 c7             	mov    %rax,%rdi
    1616:	e9 c5 fa ff ff       	jmpq   10e0 <std::ostream::flush()@plt>
    161b:	0f 1f 44 00 00       	nopl   0x0(%rax,%rax,1)
    1620:	48 89 ef             	mov    %rbp,%rdi
    1623:	e8 08 fb ff ff       	callq  1130 <std::ctype<char>::_M_widen_init() const@plt>
    1628:	48 8b 45 00          	mov    0x0(%rbp),%rax
    162c:	be 0a 00 00 00       	mov    $0xa,%esi
    1631:	48 8d 15 38 fd ff ff 	lea    -0x2c8(%rip),%rdx        # 1370 <std::ctype<char>::do_widen(char) const>
    1638:	48 8b 40 30          	mov    0x30(%rax),%rax
    163c:	48 39 d0             	cmp    %rdx,%rax
    163f:	74 c5                	je     1606 <Derived1::function1()+0x46>
    1641:	48 89 ef             	mov    %rbp,%rdi
    1644:	ff d0                	callq  *%rax
    1646:	0f be f0             	movsbl %al,%esi
    1649:	eb bb                	jmp    1606 <Derived1::function1()+0x46>
    164b:	e8 f0 fa ff ff       	callq  1140 <std::__throw_bad_cast()@plt>

0000000000001650 <__libc_csu_init>:
    1650:	f3 0f 1e fa          	endbr64 
    1654:	41 57                	push   %r15
    1656:	4c 8d 3d 43 26 00 00 	lea    0x2643(%rip),%r15        # 3ca0 <__frame_dummy_init_array_entry>
    165d:	41 56                	push   %r14
    165f:	49 89 d6             	mov    %rdx,%r14
    1662:	41 55                	push   %r13
    1664:	49 89 f5             	mov    %rsi,%r13
    1667:	41 54                	push   %r12
    1669:	41 89 fc             	mov    %edi,%r12d
    166c:	55                   	push   %rbp
    166d:	48 8d 2d 3c 26 00 00 	lea    0x263c(%rip),%rbp        # 3cb0 <__do_global_dtors_aux_fini_array_entry>
    1674:	53                   	push   %rbx
    1675:	4c 29 fd             	sub    %r15,%rbp
    1678:	48 83 ec 08          	sub    $0x8,%rsp
    167c:	e8 7f f9 ff ff       	callq  1000 <_init>
    1681:	48 c1 fd 03          	sar    $0x3,%rbp
    1685:	74 1f                	je     16a6 <__libc_csu_init+0x56>
    1687:	31 db                	xor    %ebx,%ebx
    1689:	0f 1f 80 00 00 00 00 	nopl   0x0(%rax)
    1690:	4c 89 f2             	mov    %r14,%rdx
    1693:	4c 89 ee             	mov    %r13,%rsi
    1696:	44 89 e7             	mov    %r12d,%edi
    1699:	41 ff 14 df          	callq  *(%r15,%rbx,8)
    169d:	48 83 c3 01          	add    $0x1,%rbx
    16a1:	48 39 dd             	cmp    %rbx,%rbp
    16a4:	75 ea                	jne    1690 <__libc_csu_init+0x40>
    16a6:	48 83 c4 08          	add    $0x8,%rsp
    16aa:	5b                   	pop    %rbx
    16ab:	5d                   	pop    %rbp
    16ac:	41 5c                	pop    %r12
    16ae:	41 5d                	pop    %r13
    16b0:	41 5e                	pop    %r14
    16b2:	41 5f                	pop    %r15
    16b4:	c3                   	retq   
    16b5:	66 66 2e 0f 1f 84 00 	data16 nopw %cs:0x0(%rax,%rax,1)
    16bc:	00 00 00 00 

00000000000016c0 <__libc_csu_fini>:
    16c0:	f3 0f 1e fa          	endbr64 
    16c4:	c3                   	retq   

Disassembly of section .fini:

00000000000016c8 <_fini>:
    16c8:	f3 0f 1e fa          	endbr64 
    16cc:	48 83 ec 08          	sub    $0x8,%rsp
    16d0:	48 83 c4 08          	add    $0x8,%rsp
    16d4:	c3                   	retq   
